(lp0
(lp1
(lp2
(I45
I180
S'p'
p3
tp4
aaS'0'
p5
aa(lp6
(lp7
(I27
I153
S'b'
p8
tp9
aag5
aa(lp10
(lp11
(I63
I144
S'f'
p12
tp13
aag5
aa(lp14
(lp15
(I81
I234
S'x'
p16
tp17
aag5
aa(lp18
(lp19
(I27
I162
S'm'
p20
tp21
aag5
aa(lp22
(lp23
(I135
I189
S'i'
p24
tp25
aag5
aa(lp26
(lp27
(I45
I108
S'l'
p28
tp29
aag5
aa(lp30
(lp31
(I45
I207
S'v'
p32
tp33
aag5
aa(lp34
(lp35
(I81
I261
g20
tp36
aag5
aa(lp37
(lp38
(I99
I162
S'u'
p39
tp40
aag5
aa(lp41
(lp42
(I81
I81
g32
tp43
aag5
aa(lp44
(lp45
(I81
I180
S'c'
p46
tp47
aag5
aa(lp48
(lp49
(I135
I90
g28
tp50
aag5
aa(lp51
(lp52
(I63
I99
g32
tp53
aag5
aa(lp54
(lp55
(I81
I270
g20
tp56
aag5
aa(lp57
(lp58
(I81
I108
g28
tp59
aag5
aa(lp60
(lp61
(I45
I243
S'r'
p62
tp63
aag5
aa(lp64
(lp65
(I63
I126
g28
tp66
aag5
aa(lp67
(lp68
(I63
I90
S's'
p69
tp70
aag5
aa(lp71
(lp72
(I99
I81
S'o'
p73
tp74
aag5
aa(lp75
(lp76
(I117
I207
S'q'
p77
tp78
aag5
aa(lp79
(lp80
(I45
I162
S'g'
p81
tp82
aag5
aa(lp83
(lp84
(I45
I144
S'z'
p85
tp86
aag5
aa(lp87
(lp88
(I63
I180
g16
tp89
aag5
aa(lp90
(lp91
(I99
I72
g28
tp92
aag5
aa(lp93
(lp94
(I135
I216
g3
tp95
aag5
aa(lp96
(lp97
(I81
I126
g32
tp98
aag5
aa(lp99
(lp100
(I117
I270
g77
tp101
aag5
aa(lp102
(lp103
(I135
I216
g73
tp104
aag5
aa(lp105
(lp106
(I99
I252
g73
tp107
aag5
aa(lp108
(lp109
(I27
I216
g24
tp110
aag5
aa(lp111
(lp112
(I117
I261
g8
tp113
aag5
aa(lp114
(lp115
(I117
I270
S'n'
p116
tp117
aag5
aa(lp118
(lp119
(I81
I216
g8
tp120
aag5
aa(lp121
(lp122
(I81
I135
S'h'
p123
tp124
aag5
aa(lp125
(lp126
(I27
I153
S't'
p127
tp128
aag5
aa(lp129
(lp130
(I45
I117
S'd'
p131
tp132
aag5
aa(lp133
(lp134
(I45
I252
g20
tp135
aag5
aa(lp136
(lp137
(I27
I171
g73
tp138
aag5
aa(lp139
(lp140
(I135
I162
g127
tp141
aag5
aa(lp142
(lp143
(I45
I243
S'j'
p144
tp145
aag5
aa(lp146
(lp147
(I135
I252
g81
tp148
aag5
aa(lp149
(lp150
(I99
I153
g123
tp151
aag5
aa(lp152
(lp153
(I27
I135
S'e'
p154
tp155
aag5
aa(lp156
(lp157
(I99
I180
g85
tp158
aag5
aa(lp159
(lp160
(I45
I108
S'k'
p161
tp162
aag5
aa(lp163
(lp164
(I117
I261
g32
tp165
aag5
aa(lp166
(lp167
(I117
I180
S'y'
p168
tp169
aag5
aa(lp170
(lp171
(I135
I189
g144
tp172
aag5
aa(lp173
(lp174
(I135
I171
g168
tp175
aag5
aa(lp176
(lp177
(I99
I63
g161
tp178
aag5
aa(lp179
(lp180
(I81
I153
g69
tp181
aag5
aa(lp182
(lp183
(I99
I171
g123
tp184
aag5
aa(lp185
(lp186
(I135
I180
g154
tp187
aag5
aa(lp188
(lp189
(I63
I63
S'w'
p190
tp191
aag5
aa(lp192
(lp193
(I117
I243
g28
tp194
aag5
aa(lp195
(lp196
(I63
I180
g190
tp197
aag5
aa(lp198
(lp199
(I81
I135
g62
tp200
aag5
aa(lp201
(lp202
(I135
I90
g24
tp203
aag5
aa(lp204
(lp205
(I81
I126
g77
tp206
aag5
aa(lp207
(lp208
(I27
I81
g8
tp209
aag5
aa(lp210
(lp211
(I45
I153
g131
tp212
aag5
aa(lp213
(lp214
(I81
I252
g168
tp215
aag5
aa(lp216
(lp217
(I117
I234
g116
tp218
aag5
aa(lp219
(lp220
(I45
I162
g190
tp221
aag5
aa(lp222
(lp223
(I117
I108
g131
tp224
aag5
aa(lp225
(lp226
(I135
I162
g16
tp227
aag5
aa(lp228
(lp229
(I117
I225
g161
tp230
aag5
aa(lp231
(lp232
(I135
I135
g144
tp233
aag5
aa(lp234
(lp235
(I45
I90
g28
tp236
aag5
aa(lp237
(lp238
(I81
I189
g39
tp239
aag5
aa(lp240
(lp241
(I63
I225
g81
tp242
aag5
aa(lp243
(lp244
(I27
I198
g81
tp245
aag5
aa(lp246
(lp247
(I27
I252
g62
tp248
aag5
aa(lp249
(lp250
(I135
I153
g77
tp251
aag5
aa(lp252
(lp253
(I135
I189
g154
tp254
aag5
aa(lp255
(lp256
(I135
I63
g85
tp257
aag5
aa(lp258
(lp259
(I117
I198
g190
tp260
aag5
aa(lp261
(lp262
(I27
I198
g190
tp263
aag5
aa(lp264
(lp265
(I63
I135
g12
tp266
aag5
aa(lp267
(lp268
(I63
I243
S'a'
p269
tp270
aag5
aa(lp271
(lp272
(I81
I180
g3
tp273
aag5
aa(lp274
(lp275
(I81
I261
g24
tp276
aag5
aa(lp277
(lp278
(I117
I135
g3
tp279
aag5
aa(lp280
(lp281
(I99
I234
g3
tp282
aag5
aa(lp283
(lp284
(I99
I198
g32
tp285
aag5
aa(lp286
(lp287
(I63
I108
g8
tp288
aag5
aa(lp289
(lp290
(I135
I63
g161
tp291
aag5
aa(lp292
(lp293
(I27
I90
g28
tp294
aag5
aa(lp295
(lp296
(I117
I81
g269
tp297
aag5
aa(lp298
(lp299
(I45
I135
g32
tp300
aag5
aa(lp301
(lp302
(I27
I207
g16
tp303
aag5
aa(lp304
(lp305
(I117
I126
g127
tp306
aag5
aa(lp307
(lp308
(I63
I171
g77
tp309
aag5
aa(lp310
(lp311
(I45
I144
g77
tp312
aag5
aa(lp313
(lp314
(I99
I189
g144
tp315
aag5
aa(lp316
(lp317
(I63
I180
g269
tp318
aag5
aa(lp319
(lp320
(I45
I117
g73
tp321
aag5
aa(lp322
(lp323
(I117
I252
g12
tp324
aag5
aa(lp325
(lp326
(I63
I153
g73
tp327
aag5
aa(lp328
(lp329
(I81
I261
g62
tp330
aag5
aa(lp331
(lp332
(I63
I63
g161
tp333
aag5
aa(lp334
(lp335
(I45
I90
g12
tp336
aag5
aa(lp337
(lp338
(I117
I162
g190
tp339
aag5
aa(lp340
(lp341
(I99
I108
g46
tp342
aag5
aa(lp343
(lp344
(I63
I270
g127
tp345
aag5
aa(lp346
(lp347
(I99
I270
g144
tp348
aag5
aa(lp349
(lp350
(I135
I270
g127
tp351
aag5
aa(lp352
(lp353
(I117
I99
g8
tp354
aag5
aa(lp355
(lp356
(I81
I126
g20
tp357
aag5
aa(lp358
(lp359
(I63
I144
g3
tp360
aag5
aa(lp361
(lp362
(I45
I108
g81
tp363
aag5
aa(lp364
(lp365
(I135
I63
g161
tp366
aag5
aa(lp367
(lp368
(I81
I225
g168
tp369
aag5
aa(lp370
(lp371
(I81
I81
g154
tp372
aag5
aa(lp373
(lp374
(I135
I72
g269
tp375
aag5
aa(lp376
(lp377
(I27
I261
g127
tp378
aag5
aa(lp379
(lp380
(I45
I162
g77
tp381
aag5
aa(lp382
(lp383
(I99
I207
g20
tp384
aag5
aa(lp385
(lp386
(I63
I171
g77
tp387
aag5
aa(lp388
(lp389
(I135
I63
g161
tp390
aag5
aa(lp391
(lp392
(I117
I225
g8
tp393
aag5
aa(lp394
(lp395
(I45
I234
g39
tp396
aag5
aa(lp397
(lp398
(I81
I252
g161
tp399
aag5
aa(lp400
(lp401
(I27
I198
g131
tp402
aag5
aa(lp403
(lp404
(I207
I81
g39
tp405
aaS'1'
p406
aa(lp407
(lp408
(I243
I207
g8
tp409
aag406
aa(lp410
(lp411
(I171
I117
g62
tp412
aag406
aa(lp413
(lp414
(I261
I225
g69
tp415
aag406
aa(lp416
(lp417
(I279
I90
g161
tp418
aag406
aa(lp419
(lp420
(I261
I162
g20
tp421
aag406
aa(lp422
(lp423
(I279
I243
g85
tp424
aag406
aa(lp425
(lp426
(I225
I162
g8
tp427
aag406
aa(lp428
(lp429
(I279
I270
g123
tp430
aag406
aa(lp431
(lp432
(I279
I207
g16
tp433
aag406
aa(lp434
(lp435
(I189
I189
g77
tp436
aag406
aa(lp437
(lp438
(I225
I216
g161
tp439
aag406
aa(lp440
(lp441
(I207
I117
g161
tp442
aag406
aa(lp443
(lp444
(I279
I117
g269
tp445
aag406
aa(lp446
(lp447
(I225
I180
g3
tp448
aag406
aa(lp449
(lp450
(I171
I171
g46
tp451
aag406
aa(lp452
(lp453
(I225
I252
g81
tp454
aag406
aa(lp455
(lp456
(I243
I234
g16
tp457
aag406
aa(lp458
(lp459
(I189
I270
g77
tp460
aag406
aa(lp461
(lp462
(I225
I126
g77
tp463
aag406
aa(lp464
(lp465
(I189
I252
g77
tp466
aag406
aa(lp467
(lp468
(I171
I198
g116
tp469
aag406
aa(lp470
(lp471
(I279
I126
g123
tp472
aag406
aa(lp473
(lp474
(I189
I162
g127
tp475
aag406
aa(lp476
(lp477
(I189
I81
g131
tp478
aag406
aa(lp479
(lp480
(I189
I117
g28
tp481
aag406
aa(lp482
(lp483
(I189
I72
g73
tp484
aag406
aa(lp485
(lp486
(I243
I171
g168
tp487
aag406
aa(lp488
(lp489
(I225
I81
g116
tp490
aag406
aa(lp491
(lp492
(I243
I90
g77
tp493
aag406
aa(lp494
(lp495
(I279
I171
g127
tp496
aag406
aa(lp497
(lp498
(I171
I72
g116
tp499
aag406
aa(lp500
(lp501
(I243
I162
g3
tp502
aag406
aa(lp503
(lp504
(I171
I108
g73
tp505
aag406
aa(lp506
(lp507
(I261
I180
g8
tp508
aag406
aa(lp509
(lp510
(I225
I198
g3
tp511
aag406
aa(lp512
(lp513
(I261
I72
g144
tp514
aag406
aa(lp515
(lp516
(I207
I180
g69
tp517
aag406
aa(lp518
(lp519
(I261
I162
g12
tp520
aag406
aa(lp521
(lp522
(I171
I243
g81
tp523
aag406
aa(lp524
(lp525
(I279
I261
g46
tp526
aag406
aa(lp527
(lp528
(I279
I90
g77
tp529
aag406
aa(lp530
(lp531
(I225
I72
g3
tp532
aag406
aa(lp533
(lp534
(I279
I108
g73
tp535
aag406
aa(lp536
(lp537
(I171
I198
g12
tp538
aag406
aa(lp539
(lp540
(I243
I243
g8
tp541
aag406
aa(lp542
(lp543
(I225
I162
g32
tp544
aag406
aa(lp545
(lp546
(I261
I135
g3
tp547
aag406
aa(lp548
(lp549
(I225
I126
g73
tp550
aag406
aa(lp551
(lp552
(I261
I81
g69
tp553
aag406
aa(lp554
(lp555
(I243
I99
g73
tp556
aag406
aa(lp557
(lp558
(I279
I153
g168
tp559
aag406
aa(lp560
(lp561
(I243
I153
g73
tp562
aag406
aa(lp563
(lp564
(I189
I90
g32
tp565
aag406
aa(lp566
(lp567
(I243
I162
g131
tp568
aag406
aa(lp569
(lp570
(I243
I180
g127
tp571
aag406
aa(lp572
(lp573
(I207
I261
g46
tp574
aag406
aa(lp575
(lp576
(I171
I90
g12
tp577
aag406
aa(lp578
(lp579
(I261
I225
g12
tp580
aag406
aa(lp581
(lp582
(I261
I252
g123
tp583
aag406
aa(lp584
(lp585
(I261
I162
g16
tp586
aag406
aa(lp587
(lp588
(I243
I90
g12
tp589
aag406
aa(lp590
(lp591
(I225
I99
g116
tp592
aag406
aa(lp593
(lp594
(I261
I81
g190
tp595
aag406
aa(lp596
(lp597
(I261
I72
g46
tp598
aag406
aa(lp599
(lp600
(I207
I189
g12
tp601
aag406
aa(lp602
(lp603
(I207
I72
g116
tp604
aag406
aa(lp605
(lp606
(I279
I261
g39
tp607
aag406
aa(lp608
(lp609
(I207
I207
g154
tp610
aag406
aa(lp611
(lp612
(I261
I153
g123
tp613
aag406
aa(lp614
(lp615
(I261
I108
g39
tp616
aag406
aa(lp617
(lp618
(I261
I108
g154
tp619
aag406
aa(lp620
(lp621
(I171
I81
g69
tp622
aag406
aa(lp623
(lp624
(I207
I216
g8
tp625
aag406
aa(lp626
(lp627
(I225
I117
g12
tp628
aag406
aa(lp629
(lp630
(I243
I162
g16
tp631
aag406
aa(lp632
(lp633
(I279
I234
g73
tp634
aag406
aa(lp635
(lp636
(I189
I243
g3
tp637
aag406
aa(lp638
(lp639
(I171
I90
g154
tp640
aag406
aa(lp641
(lp642
(I261
I216
g168
tp643
aag406
aa(lp644
(lp645
(I261
I189
g12
tp646
aag406
aa(lp647
(lp648
(I225
I81
g20
tp649
aag406
aa(lp650
(lp651
(I207
I153
g69
tp652
aag406
aa(lp653
(lp654
(I243
I207
g131
tp655
aag406
aa(lp656
(lp657
(I279
I144
g116
tp658
aag406
aa(lp659
(lp660
(I225
I252
g46
tp661
aag406
aa(lp662
(lp663
(I261
I252
g168
tp664
aag406
aa(lp665
(lp666
(I207
I81
g69
tp667
aag406
aa(lp668
(lp669
(I261
I207
g154
tp670
aag406
aa(lp671
(lp672
(I261
I198
g154
tp673
aag406
aa(lp674
(lp675
(I279
I153
g24
tp676
aag406
aa(lp677
(lp678
(I225
I144
g28
tp679
aag406
aa(lp680
(lp681
(I225
I171
g85
tp682
aag406
aa(lp683
(lp684
(I207
I171
g123
tp685
aag406
aa(lp686
(lp687
(I279
I153
g20
tp688
aag406
aa(lp689
(lp690
(I279
I117
g32
tp691
aag406
aa(lp692
(lp693
(I171
I180
g127
tp694
aag406
aa(lp695
(lp696
(I243
I99
g269
tp697
aag406
aa(lp698
(lp699
(I279
I72
g154
tp700
aag406
aa(lp701
(lp702
(I171
I171
g77
tp703
aag406
aa(lp704
(lp705
(I261
I216
g154
tp706
aag406
aa(lp707
(lp708
(I171
I171
g81
tp709
aag406
aa(lp710
(lp711
(I207
I225
g28
tp712
aag406
aa(lp713
(lp714
(I207
I234
g81
tp715
aag406
aa(lp716
(lp717
(I243
I126
g12
tp718
aag406
aa(lp719
(lp720
(I243
I225
g116
tp721
aag406
aa(lp722
(lp723
(I243
I234
g28
tp724
aag406
aa(lp725
(lp726
(I189
I108
g168
tp727
aag406
aa(lp728
(lp729
(I279
I270
g3
tp730
aag406
aa(lp731
(lp732
(I261
I252
g190
tp733
aag406
aa(lp734
(lp735
(I225
I189
g77
tp736
aag406
aa(lp737
(lp738
(I171
I270
g20
tp739
aag406
aa(lp740
(lp741
(I171
I153
g16
tp742
aag406
aa(lp743
(lp744
(I171
I153
g8
tp745
aag406
aa(lp746
(lp747
(I243
I126
g190
tp748
aag406
aa(lp749
(lp750
(I207
I162
g154
tp751
aag406
aa(lp752
(lp753
(I279
I171
g3
tp754
aag406
aa(lp755
(lp756
(I207
I72
g32
tp757
aag406
aa(lp758
(lp759
(I225
I135
g154
tp760
aag406
aa(lp761
(lp762
(I261
I81
g24
tp763
aag406
aa(lp764
(lp765
(I207
I180
g77
tp766
aag406
aa(lp767
(lp768
(I207
I99
g69
tp769
aag406
aa(lp770
(lp771
(I243
I225
g39
tp772
aag406
aa(lp773
(lp774
(I243
I72
g116
tp775
aag406
aa(lp776
(lp777
(I225
I72
g16
tp778
aag406
aa(lp779
(lp780
(I315
I171
g32
tp781
aaS'2'
p782
aa(lp783
(lp784
(I405
I270
g62
tp785
aag782
aa(lp786
(lp787
(I315
I198
g46
tp788
aag782
aa(lp789
(lp790
(I351
I180
g73
tp791
aag782
aa(lp792
(lp793
(I405
I135
g190
tp794
aag782
aa(lp795
(lp796
(I405
I99
g20
tp797
aag782
aa(lp798
(lp799
(I387
I153
g12
tp800
aag782
aa(lp801
(lp802
(I369
I126
g154
tp803
aag782
aa(lp804
(lp805
(I369
I72
g62
tp806
aag782
aa(lp807
(lp808
(I387
I261
g168
tp809
aag782
aa(lp810
(lp811
(I333
I207
g168
tp812
aag782
aa(lp813
(lp814
(I387
I126
g144
tp815
aag782
aa(lp816
(lp817
(I423
I216
g12
tp818
aag782
aa(lp819
(lp820
(I405
I234
g69
tp821
aag782
aa(lp822
(lp823
(I351
I180
g127
tp824
aag782
aa(lp825
(lp826
(I387
I189
g77
tp827
aag782
aa(lp828
(lp829
(I315
I81
g39
tp830
aag782
aa(lp831
(lp832
(I315
I81
g81
tp833
aag782
aa(lp834
(lp835
(I405
I216
g46
tp836
aag782
aa(lp837
(lp838
(I351
I72
g127
tp839
aag782
aa(lp840
(lp841
(I387
I252
g116
tp842
aag782
aa(lp843
(lp844
(I315
I234
g154
tp845
aag782
aa(lp846
(lp847
(I387
I189
g161
tp848
aag782
aa(lp849
(lp850
(I351
I126
g73
tp851
aag782
aa(lp852
(lp853
(I351
I189
g131
tp854
aag782
aa(lp855
(lp856
(I333
I216
g24
tp857
aag782
aa(lp858
(lp859
(I369
I90
g116
tp860
aag782
aa(lp861
(lp862
(I405
I72
g161
tp863
aag782
aa(lp864
(lp865
(I369
I189
g20
tp866
aag782
aa(lp867
(lp868
(I423
I153
g16
tp869
aag782
aa(lp870
(lp871
(I351
I135
g190
tp872
aag782
aa(lp873
(lp874
(I351
I234
g12
tp875
aag782
aa(lp876
(lp877
(I351
I162
g116
tp878
aag782
aa(lp879
(lp880
(I423
I144
g12
tp881
aag782
aa(lp882
(lp883
(I315
I252
g131
tp884
aag782
aa(lp885
(lp886
(I423
I135
g269
tp887
aag782
aa(lp888
(lp889
(I351
I126
g168
tp890
aag782
aa(lp891
(lp892
(I369
I261
g12
tp893
aag782
aa(lp894
(lp895
(I351
I270
g168
tp896
aag782
aa(lp897
(lp898
(I351
I261
g16
tp899
aag782
aa(lp900
(lp901
(I351
I207
g32
tp902
aag782
aa(lp903
(lp904
(I405
I153
g39
tp905
aag782
aa(lp906
(lp907
(I333
I135
g77
tp908
aag782
aa(lp909
(lp910
(I369
I198
g123
tp911
aag782
aa(lp912
(lp913
(I423
I144
g3
tp914
aag782
aa(lp915
(lp916
(I351
I189
g269
tp917
aag782
aa(lp918
(lp919
(I405
I207
g73
tp920
aag782
aa(lp921
(lp922
(I333
I180
g24
tp923
aag782
aa(lp924
(lp925
(I387
I243
g3
tp926
aag782
aa(lp927
(lp928
(I315
I207
g16
tp929
aag782
aa(lp930
(lp931
(I387
I162
g28
tp932
aag782
aa(lp933
(lp934
(I333
I117
g269
tp935
aag782
aa(lp936
(lp937
(I387
I90
g77
tp938
aag782
aa(lp939
(lp940
(I333
I144
g190
tp941
aag782
aa(lp942
(lp943
(I351
I189
g8
tp944
aag782
aa(lp945
(lp946
(I315
I189
g154
tp947
aag782
aa(lp948
(lp949
(I351
I153
g16
tp950
aag782
aa(lp951
(lp952
(I423
I135
g77
tp953
aag782
aa(lp954
(lp955
(I333
I180
g32
tp956
aag782
aa(lp957
(lp958
(I333
I171
g12
tp959
aag782
aa(lp960
(lp961
(I423
I99
g85
tp962
aag782
aa(lp963
(lp964
(I387
I180
g28
tp965
aag782
aa(lp966
(lp967
(I351
I90
g32
tp968
aag782
aa(lp969
(lp970
(I387
I171
g69
tp971
aag782
aa(lp972
(lp973
(I387
I189
g39
tp974
aag782
aa(lp975
(lp976
(I387
I198
g20
tp977
aag782
aa(lp978
(lp979
(I423
I207
g69
tp980
aag782
aa(lp981
(lp982
(I333
I234
g127
tp983
aag782
aa(lp984
(lp985
(I387
I252
g46
tp986
aag782
aa(lp987
(lp988
(I315
I99
g85
tp989
aag782
aa(lp990
(lp991
(I333
I99
g62
tp992
aag782
aa(lp993
(lp994
(I387
I189
g12
tp995
aag782
aa(lp996
(lp997
(I387
I135
g144
tp998
aag782
aa(lp999
(lp1000
(I351
I108
g154
tp1001
aag782
aa(lp1002
(lp1003
(I333
I180
g190
tp1004
aag782
aa(lp1005
(lp1006
(I351
I216
g168
tp1007
aag782
aa(lp1008
(lp1009
(I369
I99
g168
tp1010
aag782
aa(lp1011
(lp1012
(I405
I180
g154
tp1013
aag782
aa(lp1014
(lp1015
(I333
I144
g190
tp1016
aag782
aa(lp1017
(lp1018
(I333
I171
g81
tp1019
aag782
aa(lp1020
(lp1021
(I387
I117
g3
tp1022
aag782
aa(lp1023
(lp1024
(I333
I171
g161
tp1025
aag782
aa(lp1026
(lp1027
(I405
I135
g32
tp1028
aag782
aa(lp1029
(lp1030
(I405
I243
g24
tp1031
aag782
aa(lp1032
(lp1033
(I351
I198
g81
tp1034
aag782
aa(lp1035
(lp1036
(I333
I72
g123
tp1037
aag782
aa(lp1038
(lp1039
(I387
I162
g46
tp1040
aag782
aa(lp1041
(lp1042
(I315
I144
g144
tp1043
aag782
aa(lp1044
(lp1045
(I387
I90
g69
tp1046
aag782
aa(lp1047
(lp1048
(I387
I135
g161
tp1049
aag782
aa(lp1050
(lp1051
(I423
I135
g131
tp1052
aag782
aa(lp1053
(lp1054
(I423
I198
g73
tp1055
aag782
aa(lp1056
(lp1057
(I387
I252
g131
tp1058
aag782
aa(lp1059
(lp1060
(I387
I243
g39
tp1061
aag782
aa(lp1062
(lp1063
(I405
I117
g190
tp1064
aag782
aa(lp1065
(lp1066
(I315
I252
g24
tp1067
aag782
aa(lp1068
(lp1069
(I333
I144
g144
tp1070
aag782
aa(lp1071
(lp1072
(I369
I270
g32
tp1073
aag782
aa(lp1074
(lp1075
(I315
I198
g161
tp1076
aag782
aa(lp1077
(lp1078
(I387
I135
g20
tp1079
aag782
aa(lp1080
(lp1081
(I369
I126
g12
tp1082
aag782
aa(lp1083
(lp1084
(I315
I135
g73
tp1085
aag782
aa(lp1086
(lp1087
(I351
I243
g269
tp1088
aag782
aa(lp1089
(lp1090
(I387
I126
g73
tp1091
aag782
aa(lp1092
(lp1093
(I387
I90
g190
tp1094
aag782
aa(lp1095
(lp1096
(I333
I180
g269
tp1097
aag782
aa(lp1098
(lp1099
(I351
I216
g85
tp1100
aag782
aa(lp1101
(lp1102
(I387
I144
g73
tp1103
aag782
aa(lp1104
(lp1105
(I351
I135
g73
tp1106
aag782
aa(lp1107
(lp1108
(I369
I261
g8
tp1109
aag782
aa(lp1110
(lp1111
(I369
I198
g161
tp1112
aag782
aa(lp1113
(lp1114
(I315
I189
g46
tp1115
aag782
aa(lp1116
(lp1117
(I333
I144
g39
tp1118
aag782
aa(lp1119
(lp1120
(I387
I270
g46
tp1121
aag782
aa(lp1122
(lp1123
(I405
I144
g46
tp1124
aag782
aa(lp1125
(lp1126
(I405
I117
g20
tp1127
aag782
aa(lp1128
(lp1129
(I315
I162
g127
tp1130
aag782
aa(lp1131
(lp1132
(I405
I90
g20
tp1133
aag782
aa(lp1134
(lp1135
(I405
I153
g69
tp1136
aag782
aa(lp1137
(lp1138
(I333
I81
g62
tp1139
aag782
aa(lp1140
(lp1141
(I315
I243
g190
tp1142
aag782
aa(lp1143
(lp1144
(I387
I243
g154
tp1145
aag782
aa(lp1146
(lp1147
(I405
I216
g8
tp1148
aag782
aa(lp1149
(lp1150
(I387
I99
g8
tp1151
aag782
aa(lp1152
(lp1153
(I423
I234
g8
tp1154
aag782
aa(lp1155
(lp1156
(I495
I117
g190
tp1157
aaS'3'
p1158
aa(lp1159
(lp1160
(I549
I234
g20
tp1161
aag1158
aa(lp1162
(lp1163
(I567
I108
g20
tp1164
aag1158
aa(lp1165
(lp1166
(I459
I144
g12
tp1167
aag1158
aa(lp1168
(lp1169
(I477
I153
g46
tp1170
aag1158
aa(lp1171
(lp1172
(I513
I144
g154
tp1173
aag1158
aa(lp1174
(lp1175
(I531
I198
g24
tp1176
aag1158
aa(lp1177
(lp1178
(I459
I108
g269
tp1179
aag1158
aa(lp1180
(lp1181
(I477
I270
g154
tp1182
aag1158
aa(lp1183
(lp1184
(I477
I162
g123
tp1185
aag1158
aa(lp1186
(lp1187
(I567
I243
g12
tp1188
aag1158
aa(lp1189
(lp1190
(I513
I270
g123
tp1191
aag1158
aa(lp1192
(lp1193
(I477
I261
g62
tp1194
aag1158
aa(lp1195
(lp1196
(I495
I108
g39
tp1197
aag1158
aa(lp1198
(lp1199
(I495
I108
g269
tp1200
aag1158
aa(lp1201
(lp1202
(I513
I189
g28
tp1203
aag1158
aa(lp1204
(lp1205
(I531
I189
g81
tp1206
aag1158
aa(lp1207
(lp1208
(I459
I90
g116
tp1209
aag1158
aa(lp1210
(lp1211
(I495
I225
g81
tp1212
aag1158
aa(lp1213
(lp1214
(I495
I198
g131
tp1215
aag1158
aa(lp1216
(lp1217
(I513
I225
g190
tp1218
aag1158
aa(lp1219
(lp1220
(I567
I252
g123
tp1221
aag1158
aa(lp1222
(lp1223
(I549
I234
g69
tp1224
aag1158
aa(lp1225
(lp1226
(I495
I81
g131
tp1227
aag1158
aa(lp1228
(lp1229
(I549
I180
g168
tp1230
aag1158
aa(lp1231
(lp1232
(I513
I261
g161
tp1233
aag1158
aa(lp1234
(lp1235
(I459
I72
g144
tp1236
aag1158
aa(lp1237
(lp1238
(I567
I252
g16
tp1239
aag1158
aa(lp1240
(lp1241
(I477
I252
g73
tp1242
aag1158
aa(lp1243
(lp1244
(I459
I99
g62
tp1245
aag1158
aa(lp1246
(lp1247
(I495
I117
g69
tp1248
aag1158
aa(lp1249
(lp1250
(I567
I207
g69
tp1251
aag1158
aa(lp1252
(lp1253
(I477
I207
g28
tp1254
aag1158
aa(lp1255
(lp1256
(I567
I234
g161
tp1257
aag1158
aa(lp1258
(lp1259
(I495
I81
g81
tp1260
aag1158
aa(lp1261
(lp1262
(I495
I189
g77
tp1263
aag1158
aa(lp1264
(lp1265
(I531
I252
g123
tp1266
aag1158
aa(lp1267
(lp1268
(I477
I144
g20
tp1269
aag1158
aa(lp1270
(lp1271
(I531
I207
g123
tp1272
aag1158
aa(lp1273
(lp1274
(I567
I144
g144
tp1275
aag1158
aa(lp1276
(lp1277
(I477
I198
g127
tp1278
aag1158
aa(lp1279
(lp1280
(I567
I162
g131
tp1281
aag1158
aa(lp1282
(lp1283
(I495
I207
g73
tp1284
aag1158
aa(lp1285
(lp1286
(I477
I99
g144
tp1287
aag1158
aa(lp1288
(lp1289
(I549
I90
g12
tp1290
aag1158
aa(lp1291
(lp1292
(I477
I270
g81
tp1293
aag1158
aa(lp1294
(lp1295
(I513
I252
g46
tp1296
aag1158
aa(lp1297
(lp1298
(I459
I261
g12
tp1299
aag1158
aa(lp1300
(lp1301
(I549
I243
g73
tp1302
aag1158
aa(lp1303
(lp1304
(I567
I135
g8
tp1305
aag1158
aa(lp1306
(lp1307
(I531
I99
g32
tp1308
aag1158
aa(lp1309
(lp1310
(I495
I270
g116
tp1311
aag1158
aa(lp1312
(lp1313
(I477
I243
g39
tp1314
aag1158
aa(lp1315
(lp1316
(I477
I117
g85
tp1317
aag1158
aa(lp1318
(lp1319
(I567
I162
g131
tp1320
aag1158
aa(lp1321
(lp1322
(I495
I153
g16
tp1323
aag1158
aa(lp1324
(lp1325
(I495
I261
g8
tp1326
aag1158
aa(lp1327
(lp1328
(I495
I162
g3
tp1329
aag1158
aa(lp1330
(lp1331
(I513
I108
g269
tp1332
aag1158
aa(lp1333
(lp1334
(I495
I198
g269
tp1335
aag1158
aa(lp1336
(lp1337
(I513
I252
g85
tp1338
aag1158
aa(lp1339
(lp1340
(I549
I99
g190
tp1341
aag1158
aa(lp1342
(lp1343
(I477
I234
g269
tp1344
aag1158
aa(lp1345
(lp1346
(I495
I261
g12
tp1347
aag1158
aa(lp1348
(lp1349
(I459
I225
g62
tp1350
aag1158
aa(lp1351
(lp1352
(I477
I180
g39
tp1353
aag1158
aa(lp1354
(lp1355
(I567
I81
g81
tp1356
aag1158
aa(lp1357
(lp1358
(I459
I153
g77
tp1359
aag1158
aa(lp1360
(lp1361
(I495
I261
g127
tp1362
aag1158
aa(lp1363
(lp1364
(I477
I135
g28
tp1365
aag1158
aa(lp1366
(lp1367
(I495
I108
g131
tp1368
aag1158
aa(lp1369
(lp1370
(I495
I135
g144
tp1371
aag1158
aa(lp1372
(lp1373
(I567
I153
g16
tp1374
aag1158
aa(lp1375
(lp1376
(I549
I90
g46
tp1377
aag1158
aa(lp1378
(lp1379
(I549
I108
g73
tp1380
aag1158
aa(lp1381
(lp1382
(I459
I270
g28
tp1383
aag1158
aa(lp1384
(lp1385
(I549
I72
g81
tp1386
aag1158
aa(lp1387
(lp1388
(I513
I225
g28
tp1389
aag1158
aa(lp1390
(lp1391
(I513
I90
g32
tp1392
aag1158
aa(lp1393
(lp1394
(I495
I135
g131
tp1395
aag1158
aa(lp1396
(lp1397
(I513
I261
g32
tp1398
aag1158
aa(lp1399
(lp1400
(I531
I207
g81
tp1401
aag1158
aa(lp1402
(lp1403
(I549
I153
g8
tp1404
aag1158
aa(lp1405
(lp1406
(I459
I108
g154
tp1407
aag1158
aa(lp1408
(lp1409
(I549
I171
g77
tp1410
aag1158
aa(lp1411
(lp1412
(I549
I90
g131
tp1413
aag1158
aa(lp1414
(lp1415
(I549
I144
g269
tp1416
aag1158
aa(lp1417
(lp1418
(I495
I171
g161
tp1419
aag1158
aa(lp1420
(lp1421
(I495
I108
g20
tp1422
aag1158
aa(lp1423
(lp1424
(I531
I99
g69
tp1425
aag1158
aa(lp1426
(lp1427
(I549
I180
g73
tp1428
aag1158
aa(lp1429
(lp1430
(I531
I270
g46
tp1431
aag1158
aa(lp1432
(lp1433
(I477
I216
g62
tp1434
aag1158
aa(lp1435
(lp1436
(I567
I117
g81
tp1437
aag1158
aa(lp1438
(lp1439
(I495
I144
g20
tp1440
aag1158
aa(lp1441
(lp1442
(I567
I225
g20
tp1443
aag1158
aa(lp1444
(lp1445
(I477
I126
g81
tp1446
aag1158
aa(lp1447
(lp1448
(I567
I171
g69
tp1449
aag1158
aa(lp1450
(lp1451
(I459
I216
g116
tp1452
aag1158
aa(lp1453
(lp1454
(I567
I180
g28
tp1455
aag1158
aa(lp1456
(lp1457
(I567
I198
g127
tp1458
aag1158
aa(lp1459
(lp1460
(I567
I135
g77
tp1461
aag1158
aa(lp1462
(lp1463
(I459
I162
g81
tp1464
aag1158
aa(lp1465
(lp1466
(I549
I108
g144
tp1467
aag1158
aa(lp1468
(lp1469
(I549
I135
g81
tp1470
aag1158
aa(lp1471
(lp1472
(I495
I99
g20
tp1473
aag1158
aa(lp1474
(lp1475
(I459
I162
g190
tp1476
aag1158
aa(lp1477
(lp1478
(I513
I108
g81
tp1479
aag1158
aa(lp1480
(lp1481
(I513
I234
g168
tp1482
aag1158
aa(lp1483
(lp1484
(I513
I99
g144
tp1485
aag1158
aa(lp1486
(lp1487
(I513
I252
g24
tp1488
aag1158
aa(lp1489
(lp1490
(I567
I90
g32
tp1491
aag1158
aa(lp1492
(lp1493
(I459
I81
g46
tp1494
aag1158
aa(lp1495
(lp1496
(I495
I252
g46
tp1497
aag1158
aa(lp1498
(lp1499
(I477
I171
g24
tp1500
aag1158
aa(lp1501
(lp1502
(I459
I135
g116
tp1503
aag1158
aa(lp1504
(lp1505
(I531
I270
g77
tp1506
aag1158
aa(lp1507
(lp1508
(I459
I261
g190
tp1509
aag1158
aa(lp1510
(lp1511
(I495
I144
g77
tp1512
aag1158
aa(lp1513
(lp1514
(I531
I171
g73
tp1515
aag1158
aa(lp1516
(lp1517
(I531
I189
g73
tp1518
aag1158
aa(lp1519
(lp1520
(I477
I234
g144
tp1521
aag1158
aa(lp1522
(lp1523
(I513
I153
g46
tp1524
aag1158
aa(lp1525
(lp1526
(I567
I81
g144
tp1527
aag1158
aa(lp1528
(lp1529
(I495
I207
g269
tp1530
aag1158
aa(lp1531
(lp1532
(I657
I270
g8
tp1533
aaS'4'
p1534
aa(lp1535
(lp1536
(I603
I171
g32
tp1537
aag1534
aa(lp1538
(lp1539
(I639
I207
g81
tp1540
aag1534
aa(lp1541
(lp1542
(I639
I180
g3
tp1543
aag1534
aa(lp1544
(lp1545
(I603
I243
g20
tp1546
aag1534
aa(lp1547
(lp1548
(I603
I198
g12
tp1549
aag1534
aa(lp1550
(lp1551
(I621
I126
g8
tp1552
aag1534
aa(lp1553
(lp1554
(I675
I216
g39
tp1555
aag1534
aa(lp1556
(lp1557
(I693
I225
g190
tp1558
aag1534
aa(lp1559
(lp1560
(I639
I153
g269
tp1561
aag1534
aa(lp1562
(lp1563
(I603
I198
g116
tp1564
aag1534
aa(lp1565
(lp1566
(I675
I135
g123
tp1567
aag1534
aa(lp1568
(lp1569
(I675
I144
g24
tp1570
aag1534
aa(lp1571
(lp1572
(I621
I243
g3
tp1573
aag1534
aa(lp1574
(lp1575
(I621
I153
g62
tp1576
aag1534
aa(lp1577
(lp1578
(I639
I144
g28
tp1579
aag1534
aa(lp1580
(lp1581
(I603
I108
g62
tp1582
aag1534
aa(lp1583
(lp1584
(I603
I189
g77
tp1585
aag1534
aa(lp1586
(lp1587
(I657
I261
g116
tp1588
aag1534
aa(lp1589
(lp1590
(I657
I261
g3
tp1591
aag1534
aa(lp1592
(lp1593
(I657
I216
g69
tp1594
aag1534
aa(lp1595
(lp1596
(I711
I189
g69
tp1597
aag1534
aa(lp1598
(lp1599
(I675
I99
g154
tp1600
aag1534
aa(lp1601
(lp1602
(I657
I189
g131
tp1603
aag1534
aa(lp1604
(lp1605
(I639
I90
g24
tp1606
aag1534
aa(lp1607
(lp1608
(I657
I162
g39
tp1609
aag1534
aa(lp1610
(lp1611
(I657
I180
g77
tp1612
aag1534
aa(lp1613
(lp1614
(I657
I90
g116
tp1615
aag1534
aa(lp1616
(lp1617
(I711
I162
g73
tp1618
aag1534
aa(lp1619
(lp1620
(I603
I261
g16
tp1621
aag1534
aa(lp1622
(lp1623
(I621
I270
g269
tp1624
aag1534
aa(lp1625
(lp1626
(I639
I243
g81
tp1627
aag1534
aa(lp1628
(lp1629
(I603
I99
g46
tp1630
aag1534
aa(lp1631
(lp1632
(I621
I216
g144
tp1633
aag1534
aa(lp1634
(lp1635
(I711
I171
g16
tp1636
aag1534
aa(lp1637
(lp1638
(I621
I72
g127
tp1639
aag1534
aa(lp1640
(lp1641
(I603
I270
g32
tp1642
aag1534
aa(lp1643
(lp1644
(I621
I81
g73
tp1645
aag1534
aa(lp1646
(lp1647
(I603
I144
g161
tp1648
aag1534
aa(lp1649
(lp1650
(I675
I153
g69
tp1651
aag1534
aa(lp1652
(lp1653
(I675
I99
g12
tp1654
aag1534
aa(lp1655
(lp1656
(I639
I189
g32
tp1657
aag1534
aa(lp1658
(lp1659
(I675
I180
g144
tp1660
aag1534
aa(lp1661
(lp1662
(I675
I90
g161
tp1663
aag1534
aa(lp1664
(lp1665
(I711
I261
g32
tp1666
aag1534
aa(lp1667
(lp1668
(I639
I162
g28
tp1669
aag1534
aa(lp1670
(lp1671
(I675
I189
g3
tp1672
aag1534
aa(lp1673
(lp1674
(I621
I144
g8
tp1675
aag1534
aa(lp1676
(lp1677
(I639
I270
g62
tp1678
aag1534
aa(lp1679
(lp1680
(I621
I207
g8
tp1681
aag1534
aa(lp1682
(lp1683
(I675
I117
g131
tp1684
aag1534
aa(lp1685
(lp1686
(I675
I117
g144
tp1687
aag1534
aa(lp1688
(lp1689
(I675
I117
g168
tp1690
aag1534
aa(lp1691
(lp1692
(I693
I153
g69
tp1693
aag1534
aa(lp1694
(lp1695
(I693
I234
g3
tp1696
aag1534
aa(lp1697
(lp1698
(I693
I90
g69
tp1699
aag1534
aa(lp1700
(lp1701
(I657
I99
g8
tp1702
aag1534
aa(lp1703
(lp1704
(I603
I108
g69
tp1705
aag1534
aa(lp1706
(lp1707
(I675
I207
g144
tp1708
aag1534
aa(lp1709
(lp1710
(I675
I117
g81
tp1711
aag1534
aa(lp1712
(lp1713
(I603
I270
g39
tp1714
aag1534
aa(lp1715
(lp1716
(I675
I162
g39
tp1717
aag1534
aa(lp1718
(lp1719
(I621
I252
g131
tp1720
aag1534
aa(lp1721
(lp1722
(I675
I135
g168
tp1723
aag1534
aa(lp1724
(lp1725
(I621
I189
g81
tp1726
aag1534
aa(lp1727
(lp1728
(I711
I207
g20
tp1729
aag1534
aa(lp1730
(lp1731
(I693
I90
g77
tp1732
aag1534
aa(lp1733
(lp1734
(I657
I234
g161
tp1735
aag1534
aa(lp1736
(lp1737
(I675
I135
g24
tp1738
aag1534
aa(lp1739
(lp1740
(I711
I117
g46
tp1741
aag1534
aa(lp1742
(lp1743
(I639
I144
g123
tp1744
aag1534
aa(lp1745
(lp1746
(I603
I216
g39
tp1747
aag1534
aa(lp1748
(lp1749
(I621
I108
g144
tp1750
aag1534
aa(lp1751
(lp1752
(I639
I171
g3
tp1753
aag1534
aa(lp1754
(lp1755
(I675
I270
g12
tp1756
aag1534
aa(lp1757
(lp1758
(I603
I180
g116
tp1759
aag1534
aa(lp1760
(lp1761
(I711
I162
g3
tp1762
aag1534
aa(lp1763
(lp1764
(I711
I135
g144
tp1765
aag1534
aa(lp1766
(lp1767
(I657
I99
g161
tp1768
aag1534
aa(lp1769
(lp1770
(I639
I270
g24
tp1771
aag1534
aa(lp1772
(lp1773
(I711
I234
g39
tp1774
aag1534
aa(lp1775
(lp1776
(I675
I198
g116
tp1777
aag1534
aa(lp1778
(lp1779
(I621
I189
g32
tp1780
aag1534
aa(lp1781
(lp1782
(I657
I252
g123
tp1783
aag1534
aa(lp1784
(lp1785
(I603
I99
g20
tp1786
aag1534
aa(lp1787
(lp1788
(I711
I153
g3
tp1789
aag1534
aa(lp1790
(lp1791
(I711
I72
g39
tp1792
aag1534
aa(lp1793
(lp1794
(I711
I144
g39
tp1795
aag1534
aa(lp1796
(lp1797
(I603
I99
g20
tp1798
aag1534
aa(lp1799
(lp1800
(I639
I81
g73
tp1801
aag1534
aa(lp1802
(lp1803
(I675
I198
g24
tp1804
aag1534
aa(lp1805
(lp1806
(I657
I99
g62
tp1807
aag1534
aa(lp1808
(lp1809
(I657
I225
g20
tp1810
aag1534
aa(lp1811
(lp1812
(I639
I135
g154
tp1813
aag1534
aa(lp1814
(lp1815
(I711
I234
g269
tp1816
aag1534
aa(lp1817
(lp1818
(I603
I81
g81
tp1819
aag1534
aa(lp1820
(lp1821
(I657
I117
g28
tp1822
aag1534
aa(lp1823
(lp1824
(I639
I171
g190
tp1825
aag1534
aa(lp1826
(lp1827
(I603
I90
g144
tp1828
aag1534
aa(lp1829
(lp1830
(I621
I243
g8
tp1831
aag1534
aa(lp1832
(lp1833
(I639
I90
g190
tp1834
aag1534
aa(lp1835
(lp1836
(I693
I135
g81
tp1837
aag1534
aa(lp1838
(lp1839
(I693
I162
g16
tp1840
aag1534
aa(lp1841
(lp1842
(I657
I261
g161
tp1843
aag1534
aa(lp1844
(lp1845
(I693
I162
g16
tp1846
aag1534
aa(lp1847
(lp1848
(I693
I108
g69
tp1849
aag1534
aa(lp1850
(lp1851
(I675
I108
g46
tp1852
aag1534
aa(lp1853
(lp1854
(I657
I252
g69
tp1855
aag1534
aa(lp1856
(lp1857
(I621
I90
g269
tp1858
aag1534
aa(lp1859
(lp1860
(I603
I153
g123
tp1861
aag1534
aa(lp1862
(lp1863
(I675
I171
g16
tp1864
aag1534
aa(lp1865
(lp1866
(I657
I153
g62
tp1867
aag1534
aa(lp1868
(lp1869
(I711
I99
g131
tp1870
aag1534
aa(lp1871
(lp1872
(I657
I117
g168
tp1873
aag1534
aa(lp1874
(lp1875
(I693
I225
g116
tp1876
aag1534
aa(lp1877
(lp1878
(I675
I261
g20
tp1879
aag1534
aa(lp1880
(lp1881
(I621
I108
g154
tp1882
aag1534
aa(lp1883
(lp1884
(I657
I117
g269
tp1885
aag1534
aa(lp1886
(lp1887
(I693
I117
g46
tp1888
aag1534
aa(lp1889
(lp1890
(I639
I126
g190
tp1891
aag1534
aa(lp1892
(lp1893
(I603
I162
g16
tp1894
aag1534
aa(lp1895
(lp1896
(I675
I99
g12
tp1897
aag1534
aa(lp1898
(lp1899
(I657
I72
g77
tp1900
aag1534
aa(lp1901
(lp1902
(I693
I216
g161
tp1903
aag1534
aa(lp1904
(lp1905
(I603
I72
g3
tp1906
aag1534
aa(lp1907
(lp1908
(I837
I189
g39
tp1909
aaS'5'
p1910
aa(lp1911
(lp1912
(I783
I180
g3
tp1913
aag1910
aa(lp1914
(lp1915
(I855
I72
g154
tp1916
aag1910
aa(lp1917
(lp1918
(I747
I234
g154
tp1919
aag1910
aa(lp1920
(lp1921
(I747
I270
g46
tp1922
aag1910
aa(lp1923
(lp1924
(I765
I252
g190
tp1925
aag1910
aa(lp1926
(lp1927
(I837
I252
g16
tp1928
aag1910
aa(lp1929
(lp1930
(I801
I216
g85
tp1931
aag1910
aa(lp1932
(lp1933
(I855
I243
g46
tp1934
aag1910
aa(lp1935
(lp1936
(I801
I198
g81
tp1937
aag1910
aa(lp1938
(lp1939
(I783
I252
g123
tp1940
aag1910
aa(lp1941
(lp1942
(I747
I144
g62
tp1943
aag1910
aa(lp1944
(lp1945
(I819
I81
g190
tp1946
aag1910
aa(lp1947
(lp1948
(I801
I81
g154
tp1949
aag1910
aa(lp1950
(lp1951
(I819
I162
g77
tp1952
aag1910
aa(lp1953
(lp1954
(I837
I108
g28
tp1955
aag1910
aa(lp1956
(lp1957
(I837
I153
g39
tp1958
aag1910
aa(lp1959
(lp1960
(I819
I180
g16
tp1961
aag1910
aa(lp1962
(lp1963
(I783
I207
g16
tp1964
aag1910
aa(lp1965
(lp1966
(I837
I243
g116
tp1967
aag1910
aa(lp1968
(lp1969
(I801
I81
g69
tp1970
aag1910
aa(lp1971
(lp1972
(I783
I171
g168
tp1973
aag1910
aa(lp1974
(lp1975
(I783
I144
g77
tp1976
aag1910
aa(lp1977
(lp1978
(I765
I216
g46
tp1979
aag1910
aa(lp1980
(lp1981
(I819
I90
g81
tp1982
aag1910
aa(lp1983
(lp1984
(I837
I126
g73
tp1985
aag1910
aa(lp1986
(lp1987
(I801
I99
g8
tp1988
aag1910
aa(lp1989
(lp1990
(I801
I171
g161
tp1991
aag1910
aa(lp1992
(lp1993
(I747
I99
g20
tp1994
aag1910
aa(lp1995
(lp1996
(I783
I135
g123
tp1997
aag1910
aa(lp1998
(lp1999
(I747
I135
g154
tp2000
aag1910
aa(lp2001
(lp2002
(I855
I153
g32
tp2003
aag1910
aa(lp2004
(lp2005
(I747
I225
g62
tp2006
aag1910
aa(lp2007
(lp2008
(I765
I216
g116
tp2009
aag1910
aa(lp2010
(lp2011
(I837
I225
g77
tp2012
aag1910
aa(lp2013
(lp2014
(I747
I135
g77
tp2015
aag1910
aa(lp2016
(lp2017
(I765
I189
g8
tp2018
aag1910
aa(lp2019
(lp2020
(I801
I126
g168
tp2021
aag1910
aa(lp2022
(lp2023
(I783
I72
g85
tp2024
aag1910
aa(lp2025
(lp2026
(I855
I153
g62
tp2027
aag1910
aa(lp2028
(lp2029
(I783
I117
g28
tp2030
aag1910
aa(lp2031
(lp2032
(I747
I153
g24
tp2033
aag1910
aa(lp2034
(lp2035
(I747
I189
g46
tp2036
aag1910
aa(lp2037
(lp2038
(I855
I171
g269
tp2039
aag1910
aa(lp2040
(lp2041
(I801
I99
g85
tp2042
aag1910
aa(lp2043
(lp2044
(I747
I180
g161
tp2045
aag1910
aa(lp2046
(lp2047
(I855
I153
g154
tp2048
aag1910
aa(lp2049
(lp2050
(I855
I108
g85
tp2051
aag1910
aa(lp2052
(lp2053
(I819
I234
g73
tp2054
aag1910
aa(lp2055
(lp2056
(I837
I90
g81
tp2057
aag1910
aa(lp2058
(lp2059
(I819
I117
g85
tp2060
aag1910
aa(lp2061
(lp2062
(I747
I72
g85
tp2063
aag1910
aa(lp2064
(lp2065
(I855
I180
g77
tp2066
aag1910
aa(lp2067
(lp2068
(I801
I225
g85
tp2069
aag1910
aa(lp2070
(lp2071
(I783
I198
g3
tp2072
aag1910
aa(lp2073
(lp2074
(I819
I252
g24
tp2075
aag1910
aa(lp2076
(lp2077
(I747
I171
g28
tp2078
aag1910
aa(lp2079
(lp2080
(I747
I171
g144
tp2081
aag1910
aa(lp2082
(lp2083
(I783
I144
g116
tp2084
aag1910
aa(lp2085
(lp2086
(I819
I234
g12
tp2087
aag1910
aa(lp2088
(lp2089
(I747
I99
g131
tp2090
aag1910
aa(lp2091
(lp2092
(I855
I270
g8
tp2093
aag1910
aa(lp2094
(lp2095
(I783
I270
g12
tp2096
aag1910
aa(lp2097
(lp2098
(I783
I135
g85
tp2099
aag1910
aa(lp2100
(lp2101
(I837
I180
g3
tp2102
aag1910
aa(lp2103
(lp2104
(I837
I252
g81
tp2105
aag1910
aa(lp2106
(lp2107
(I837
I207
g73
tp2108
aag1910
aa(lp2109
(lp2110
(I855
I99
g12
tp2111
aag1910
aa(lp2112
(lp2113
(I747
I234
g154
tp2114
aag1910
aa(lp2115
(lp2116
(I783
I234
g269
tp2117
aag1910
aa(lp2118
(lp2119
(I765
I243
g81
tp2120
aag1910
aa(lp2121
(lp2122
(I765
I270
g154
tp2123
aag1910
aa(lp2124
(lp2125
(I783
I162
g269
tp2126
aag1910
aa(lp2127
(lp2128
(I747
I72
g16
tp2129
aag1910
aa(lp2130
(lp2131
(I837
I261
g131
tp2132
aag1910
aa(lp2133
(lp2134
(I801
I261
g12
tp2135
aag1910
aa(lp2136
(lp2137
(I765
I144
g168
tp2138
aag1910
aa(lp2139
(lp2140
(I855
I189
g8
tp2141
aag1910
aa(lp2142
(lp2143
(I747
I81
g269
tp2144
aag1910
aa(lp2145
(lp2146
(I783
I180
g73
tp2147
aag1910
aa(lp2148
(lp2149
(I765
I153
g116
tp2150
aag1910
aa(lp2151
(lp2152
(I837
I243
g168
tp2153
aag1910
aa(lp2154
(lp2155
(I819
I207
g3
tp2156
aag1910
aa(lp2157
(lp2158
(I819
I90
g39
tp2159
aag1910
aa(lp2160
(lp2161
(I819
I270
g20
tp2162
aag1910
aa(lp2163
(lp2164
(I783
I180
g81
tp2165
aag1910
aa(lp2166
(lp2167
(I837
I198
g154
tp2168
aag1910
aa(lp2169
(lp2170
(I855
I216
g62
tp2171
aag1910
aa(lp2172
(lp2173
(I783
I180
g73
tp2174
aag1910
aa(lp2175
(lp2176
(I765
I243
g24
tp2177
aag1910
aa(lp2178
(lp2179
(I837
I108
g161
tp2180
aag1910
aa(lp2181
(lp2182
(I801
I252
g46
tp2183
aag1910
aa(lp2184
(lp2185
(I747
I117
g28
tp2186
aag1910
aa(lp2187
(lp2188
(I855
I252
g81
tp2189
aag1910
aa(lp2190
(lp2191
(I801
I198
g28
tp2192
aag1910
aa(lp2193
(lp2194
(I801
I207
g62
tp2195
aag1910
aa(lp2196
(lp2197
(I747
I135
g131
tp2198
aag1910
aa(lp2199
(lp2200
(I837
I171
g62
tp2201
aag1910
aa(lp2202
(lp2203
(I855
I180
g116
tp2204
aag1910
aa(lp2205
(lp2206
(I855
I99
g3
tp2207
aag1910
aa(lp2208
(lp2209
(I783
I90
g269
tp2210
aag1910
aa(lp2211
(lp2212
(I855
I108
g85
tp2213
aag1910
aa(lp2214
(lp2215
(I783
I72
g8
tp2216
aag1910
aa(lp2217
(lp2218
(I837
I189
g32
tp2219
aag1910
aa(lp2220
(lp2221
(I837
I117
g116
tp2222
aag1910
aa(lp2223
(lp2224
(I801
I126
g85
tp2225
aag1910
aa(lp2226
(lp2227
(I819
I261
g269
tp2228
aag1910
aa(lp2229
(lp2230
(I783
I99
g144
tp2231
aag1910
aa(lp2232
(lp2233
(I747
I135
g127
tp2234
aag1910
aa(lp2235
(lp2236
(I747
I99
g168
tp2237
aag1910
aa(lp2238
(lp2239
(I855
I81
g20
tp2240
aag1910
aa(lp2241
(lp2242
(I855
I72
g154
tp2243
aag1910
aa(lp2244
(lp2245
(I819
I171
g85
tp2246
aag1910
aa(lp2247
(lp2248
(I783
I270
g12
tp2249
aag1910
aa(lp2250
(lp2251
(I765
I270
g20
tp2252
aag1910
aa(lp2253
(lp2254
(I765
I126
g69
tp2255
aag1910
aa(lp2256
(lp2257
(I819
I90
g20
tp2258
aag1910
aa(lp2259
(lp2260
(I819
I243
g3
tp2261
aag1910
aa(lp2262
(lp2263
(I819
I207
g69
tp2264
aag1910
aa(lp2265
(lp2266
(I819
I126
g16
tp2267
aag1910
aa(lp2268
(lp2269
(I819
I117
g144
tp2270
aag1910
aa(lp2271
(lp2272
(I747
I90
g190
tp2273
aag1910
aa(lp2274
(lp2275
(I765
I90
g81
tp2276
aag1910
aa(lp2277
(lp2278
(I855
I270
g69
tp2279
aag1910
aa(lp2280
(lp2281
(I801
I144
g73
tp2282
aag1910
aa(lp2283
(lp2284
(I963
I126
g77
tp2285
aaS'6'
p2286
aa(lp2287
(lp2288
(I981
I153
g46
tp2289
aag2286
aa(lp2290
(lp2291
(I963
I81
g168
tp2292
aag2286
aa(lp2293
(lp2294
(I927
I243
g85
tp2295
aag2286
aa(lp2296
(lp2297
(I945
I108
g39
tp2298
aag2286
aa(lp2299
(lp2300
(I891
I72
g116
tp2301
aag2286
aa(lp2302
(lp2303
(I945
I117
g12
tp2304
aag2286
aa(lp2305
(lp2306
(I891
I225
g127
tp2307
aag2286
aa(lp2308
(lp2309
(I891
I126
g131
tp2310
aag2286
aa(lp2311
(lp2312
(I981
I171
g16
tp2313
aag2286
aa(lp2314
(lp2315
(I963
I189
g24
tp2316
aag2286
aa(lp2317
(lp2318
(I945
I252
g32
tp2319
aag2286
aa(lp2320
(lp2321
(I891
I261
g190
tp2322
aag2286
aa(lp2323
(lp2324
(I945
I126
g20
tp2325
aag2286
aa(lp2326
(lp2327
(I945
I72
g85
tp2328
aag2286
aa(lp2329
(lp2330
(I927
I234
g190
tp2331
aag2286
aa(lp2332
(lp2333
(I891
I72
g116
tp2334
aag2286
aa(lp2335
(lp2336
(I981
I144
g69
tp2337
aag2286
aa(lp2338
(lp2339
(I981
I198
g73
tp2340
aag2286
aa(lp2341
(lp2342
(I999
I90
g123
tp2343
aag2286
aa(lp2344
(lp2345
(I945
I81
g32
tp2346
aag2286
aa(lp2347
(lp2348
(I999
I171
g62
tp2349
aag2286
aa(lp2350
(lp2351
(I963
I216
g73
tp2352
aag2286
aa(lp2353
(lp2354
(I927
I171
g131
tp2355
aag2286
aa(lp2356
(lp2357
(I999
I216
g269
tp2358
aag2286
aa(lp2359
(lp2360
(I909
I153
g12
tp2361
aag2286
aa(lp2362
(lp2363
(I963
I234
g154
tp2364
aag2286
aa(lp2365
(lp2366
(I999
I180
g116
tp2367
aag2286
aa(lp2368
(lp2369
(I891
I198
g8
tp2370
aag2286
aa(lp2371
(lp2372
(I909
I135
g116
tp2373
aag2286
aa(lp2374
(lp2375
(I963
I108
g20
tp2376
aag2286
aa(lp2377
(lp2378
(I909
I243
g131
tp2379
aag2286
aa(lp2380
(lp2381
(I963
I252
g123
tp2382
aag2286
aa(lp2383
(lp2384
(I909
I207
g32
tp2385
aag2286
aa(lp2386
(lp2387
(I891
I243
g131
tp2388
aag2286
aa(lp2389
(lp2390
(I999
I135
g3
tp2391
aag2286
aa(lp2392
(lp2393
(I909
I99
g269
tp2394
aag2286
aa(lp2395
(lp2396
(I909
I135
g161
tp2397
aag2286
aa(lp2398
(lp2399
(I927
I252
g131
tp2400
aag2286
aa(lp2401
(lp2402
(I981
I171
g77
tp2403
aag2286
aa(lp2404
(lp2405
(I999
I252
g144
tp2406
aag2286
aa(lp2407
(lp2408
(I999
I135
g39
tp2409
aag2286
aa(lp2410
(lp2411
(I909
I144
g8
tp2412
aag2286
aa(lp2413
(lp2414
(I927
I126
g69
tp2415
aag2286
aa(lp2416
(lp2417
(I891
I171
g39
tp2418
aag2286
aa(lp2419
(lp2420
(I891
I81
g46
tp2421
aag2286
aa(lp2422
(lp2423
(I963
I81
g77
tp2424
aag2286
aa(lp2425
(lp2426
(I999
I216
g127
tp2427
aag2286
aa(lp2428
(lp2429
(I891
I171
g69
tp2430
aag2286
aa(lp2431
(lp2432
(I909
I225
g24
tp2433
aag2286
aa(lp2434
(lp2435
(I999
I108
g3
tp2436
aag2286
aa(lp2437
(lp2438
(I999
I261
g123
tp2439
aag2286
aa(lp2440
(lp2441
(I927
I180
g131
tp2442
aag2286
aa(lp2443
(lp2444
(I945
I216
g168
tp2445
aag2286
aa(lp2446
(lp2447
(I963
I144
g190
tp2448
aag2286
aa(lp2449
(lp2450
(I963
I252
g123
tp2451
aag2286
aa(lp2452
(lp2453
(I927
I117
g69
tp2454
aag2286
aa(lp2455
(lp2456
(I963
I189
g116
tp2457
aag2286
aa(lp2458
(lp2459
(I945
I270
g85
tp2460
aag2286
aa(lp2461
(lp2462
(I981
I270
g20
tp2463
aag2286
aa(lp2464
(lp2465
(I927
I99
g154
tp2466
aag2286
aa(lp2467
(lp2468
(I963
I153
g116
tp2469
aag2286
aa(lp2470
(lp2471
(I927
I270
g123
tp2472
aag2286
aa(lp2473
(lp2474
(I891
I234
g77
tp2475
aag2286
aa(lp2476
(lp2477
(I909
I72
g161
tp2478
aag2286
aa(lp2479
(lp2480
(I909
I207
g190
tp2481
aag2286
aa(lp2482
(lp2483
(I963
I207
g161
tp2484
aag2286
aa(lp2485
(lp2486
(I927
I243
g85
tp2487
aag2286
aa(lp2488
(lp2489
(I945
I198
g73
tp2490
aag2286
aa(lp2491
(lp2492
(I945
I99
g127
tp2493
aag2286
aa(lp2494
(lp2495
(I891
I81
g123
tp2496
aag2286
aa(lp2497
(lp2498
(I981
I270
g77
tp2499
aag2286
aa(lp2500
(lp2501
(I909
I180
g62
tp2502
aag2286
aa(lp2503
(lp2504
(I909
I171
g190
tp2505
aag2286
aa(lp2506
(lp2507
(I909
I171
g24
tp2508
aag2286
aa(lp2509
(lp2510
(I909
I99
g73
tp2511
aag2286
aa(lp2512
(lp2513
(I963
I153
g46
tp2514
aag2286
aa(lp2515
(lp2516
(I945
I153
g269
tp2517
aag2286
aa(lp2518
(lp2519
(I891
I171
g28
tp2520
aag2286
aa(lp2521
(lp2522
(I927
I90
g28
tp2523
aag2286
aa(lp2524
(lp2525
(I909
I90
g32
tp2526
aag2286
aa(lp2527
(lp2528
(I909
I99
g190
tp2529
aag2286
aa(lp2530
(lp2531
(I999
I180
g131
tp2532
aag2286
aa(lp2533
(lp2534
(I927
I234
g154
tp2535
aag2286
aa(lp2536
(lp2537
(I927
I198
g190
tp2538
aag2286
aa(lp2539
(lp2540
(I999
I81
g20
tp2541
aag2286
aa(lp2542
(lp2543
(I981
I162
g123
tp2544
aag2286
aa(lp2545
(lp2546
(I999
I117
g127
tp2547
aag2286
aa(lp2548
(lp2549
(I999
I90
g81
tp2550
aag2286
aa(lp2551
(lp2552
(I963
I99
g73
tp2553
aag2286
aa(lp2554
(lp2555
(I891
I108
g3
tp2556
aag2286
aa(lp2557
(lp2558
(I927
I153
g12
tp2559
aag2286
aa(lp2560
(lp2561
(I891
I90
g161
tp2562
aag2286
aa(lp2563
(lp2564
(I927
I117
g24
tp2565
aag2286
aa(lp2566
(lp2567
(I945
I135
g123
tp2568
aag2286
aa(lp2569
(lp2570
(I963
I162
g46
tp2571
aag2286
aa(lp2572
(lp2573
(I891
I198
g77
tp2574
aag2286
aa(lp2575
(lp2576
(I963
I117
g16
tp2577
aag2286
aa(lp2578
(lp2579
(I927
I72
g116
tp2580
aag2286
aa(lp2581
(lp2582
(I981
I270
g73
tp2583
aag2286
aa(lp2584
(lp2585
(I927
I234
g123
tp2586
aag2286
aa(lp2587
(lp2588
(I909
I261
g123
tp2589
aag2286
aa(lp2590
(lp2591
(I927
I90
g77
tp2592
aag2286
aa(lp2593
(lp2594
(I945
I243
g154
tp2595
aag2286
aa(lp2596
(lp2597
(I981
I234
g81
tp2598
aag2286
aa(lp2599
(lp2600
(I999
I270
g32
tp2601
aag2286
aa(lp2602
(lp2603
(I963
I252
g39
tp2604
aag2286
aa(lp2605
(lp2606
(I963
I144
g46
tp2607
aag2286
aa(lp2608
(lp2609
(I927
I135
g69
tp2610
aag2286
aa(lp2611
(lp2612
(I981
I153
g12
tp2613
aag2286
aa(lp2614
(lp2615
(I891
I198
g16
tp2616
aag2286
aa(lp2617
(lp2618
(I891
I108
g154
tp2619
aag2286
aa(lp2620
(lp2621
(I945
I72
g24
tp2622
aag2286
aa(lp2623
(lp2624
(I927
I135
g20
tp2625
aag2286
aa(lp2626
(lp2627
(I999
I198
g62
tp2628
aag2286
aa(lp2629
(lp2630
(I909
I108
g127
tp2631
aag2286
aa(lp2632
(lp2633
(I927
I198
g123
tp2634
aag2286
aa(lp2635
(lp2636
(I999
I108
g46
tp2637
aag2286
aa(lp2638
(lp2639
(I999
I117
g24
tp2640
aag2286
aa(lp2641
(lp2642
(I999
I243
g154
tp2643
aag2286
aa(lp2644
(lp2645
(I909
I135
g154
tp2646
aag2286
aa(lp2647
(lp2648
(I891
I243
g62
tp2649
aag2286
aa(lp2650
(lp2651
(I981
I225
g20
tp2652
aag2286
aa(lp2653
(lp2654
(I945
I171
g62
tp2655
aag2286
aa(lp2656
(lp2657
(I909
I189
g116
tp2658
aag2286
aa(lp2659
(lp2660
(I1035
I90
g16
tp2661
aaS'7'
p2662
aa(lp2663
(lp2664
(I1035
I81
g16
tp2665
aag2662
aa(lp2666
(lp2667
(I1053
I144
g123
tp2668
aag2662
aa(lp2669
(lp2670
(I1107
I207
g154
tp2671
aag2662
aa(lp2672
(lp2673
(I1125
I198
g144
tp2674
aag2662
aa(lp2675
(lp2676
(I1143
I90
g8
tp2677
aag2662
aa(lp2678
(lp2679
(I1089
I243
g69
tp2680
aag2662
aa(lp2681
(lp2682
(I1125
I261
g12
tp2683
aag2662
aa(lp2684
(lp2685
(I1143
I144
g127
tp2686
aag2662
aa(lp2687
(lp2688
(I1107
I216
g12
tp2689
aag2662
aa(lp2690
(lp2691
(I1143
I72
g81
tp2692
aag2662
aa(lp2693
(lp2694
(I1053
I207
g32
tp2695
aag2662
aa(lp2696
(lp2697
(I1071
I225
g144
tp2698
aag2662
aa(lp2699
(lp2700
(I1071
I153
g85
tp2701
aag2662
aa(lp2702
(lp2703
(I1035
I162
g123
tp2704
aag2662
aa(lp2705
(lp2706
(I1035
I234
g28
tp2707
aag2662
aa(lp2708
(lp2709
(I1125
I243
g24
tp2710
aag2662
aa(lp2711
(lp2712
(I1053
I117
g46
tp2713
aag2662
aa(lp2714
(lp2715
(I1143
I261
g144
tp2716
aag2662
aa(lp2717
(lp2718
(I1089
I252
g24
tp2719
aag2662
aa(lp2720
(lp2721
(I1053
I225
g69
tp2722
aag2662
aa(lp2723
(lp2724
(I1089
I243
g123
tp2725
aag2662
aa(lp2726
(lp2727
(I1071
I144
g123
tp2728
aag2662
aa(lp2729
(lp2730
(I1107
I99
g190
tp2731
aag2662
aa(lp2732
(lp2733
(I1107
I198
g144
tp2734
aag2662
aa(lp2735
(lp2736
(I1035
I108
g3
tp2737
aag2662
aa(lp2738
(lp2739
(I1143
I81
g168
tp2740
aag2662
aa(lp2741
(lp2742
(I1035
I216
g168
tp2743
aag2662
aa(lp2744
(lp2745
(I1089
I126
g161
tp2746
aag2662
aa(lp2747
(lp2748
(I1071
I189
g77
tp2749
aag2662
aa(lp2750
(lp2751
(I1053
I72
g16
tp2752
aag2662
aa(lp2753
(lp2754
(I1107
I99
g8
tp2755
aag2662
aa(lp2756
(lp2757
(I1089
I270
g32
tp2758
aag2662
aa(lp2759
(lp2760
(I1035
I90
g190
tp2761
aag2662
aa(lp2762
(lp2763
(I1107
I243
g69
tp2764
aag2662
aa(lp2765
(lp2766
(I1089
I225
g32
tp2767
aag2662
aa(lp2768
(lp2769
(I1125
I126
g190
tp2770
aag2662
aa(lp2771
(lp2772
(I1071
I261
g116
tp2773
aag2662
aa(lp2774
(lp2775
(I1035
I135
g144
tp2776
aag2662
aa(lp2777
(lp2778
(I1143
I198
g144
tp2779
aag2662
aa(lp2780
(lp2781
(I1089
I81
g46
tp2782
aag2662
aa(lp2783
(lp2784
(I1089
I189
g28
tp2785
aag2662
aa(lp2786
(lp2787
(I1071
I90
g144
tp2788
aag2662
aa(lp2789
(lp2790
(I1071
I180
g16
tp2791
aag2662
aa(lp2792
(lp2793
(I1107
I207
g269
tp2794
aag2662
aa(lp2795
(lp2796
(I1107
I162
g269
tp2797
aag2662
aa(lp2798
(lp2799
(I1053
I72
g190
tp2800
aag2662
aa(lp2801
(lp2802
(I1035
I126
g85
tp2803
aag2662
aa(lp2804
(lp2805
(I1089
I252
g16
tp2806
aag2662
aa(lp2807
(lp2808
(I1035
I171
g3
tp2809
aag2662
aa(lp2810
(lp2811
(I1125
I225
g73
tp2812
aag2662
aa(lp2813
(lp2814
(I1107
I135
g116
tp2815
aag2662
aa(lp2816
(lp2817
(I1125
I252
g131
tp2818
aag2662
aa(lp2819
(lp2820
(I1143
I108
g20
tp2821
aag2662
aa(lp2822
(lp2823
(I1089
I270
g116
tp2824
aag2662
aa(lp2825
(lp2826
(I1125
I216
g8
tp2827
aag2662
aa(lp2828
(lp2829
(I1089
I90
g20
tp2830
aag2662
aa(lp2831
(lp2832
(I1125
I243
g39
tp2833
aag2662
aa(lp2834
(lp2835
(I1125
I171
g168
tp2836
aag2662
aa(lp2837
(lp2838
(I1035
I135
g12
tp2839
aag2662
aa(lp2840
(lp2841
(I1125
I90
g81
tp2842
aag2662
aa(lp2843
(lp2844
(I1107
I144
g123
tp2845
aag2662
aa(lp2846
(lp2847
(I1071
I108
g28
tp2848
aag2662
aa(lp2849
(lp2850
(I1053
I216
g269
tp2851
aag2662
aa(lp2852
(lp2853
(I1143
I144
g123
tp2854
aag2662
aa(lp2855
(lp2856
(I1089
I252
g269
tp2857
aag2662
aa(lp2858
(lp2859
(I1089
I225
g161
tp2860
aag2662
aa(lp2861
(lp2862
(I1053
I234
g168
tp2863
aag2662
aa(lp2864
(lp2865
(I1125
I117
g168
tp2866
aag2662
aa(lp2867
(lp2868
(I1143
I243
g28
tp2869
aag2662
aa(lp2870
(lp2871
(I1035
I270
g62
tp2872
aag2662
aa(lp2873
(lp2874
(I1053
I117
g123
tp2875
aag2662
aa(lp2876
(lp2877
(I1143
I216
g77
tp2878
aag2662
aa(lp2879
(lp2880
(I1143
I207
g39
tp2881
aag2662
aa(lp2882
(lp2883
(I1143
I126
g190
tp2884
aag2662
aa(lp2885
(lp2886
(I1125
I90
g85
tp2887
aag2662
aa(lp2888
(lp2889
(I1035
I216
g116
tp2890
aag2662
aa(lp2891
(lp2892
(I1125
I189
g144
tp2893
aag2662
aa(lp2894
(lp2895
(I1071
I117
g269
tp2896
aag2662
aa(lp2897
(lp2898
(I1053
I162
g3
tp2899
aag2662
aa(lp2900
(lp2901
(I1035
I234
g154
tp2902
aag2662
aa(lp2903
(lp2904
(I1053
I189
g85
tp2905
aag2662
aa(lp2906
(lp2907
(I1143
I243
g12
tp2908
aag2662
aa(lp2909
(lp2910
(I1071
I189
g168
tp2911
aag2662
aa(lp2912
(lp2913
(I1089
I216
g81
tp2914
aag2662
aa(lp2915
(lp2916
(I1035
I216
g32
tp2917
aag2662
aa(lp2918
(lp2919
(I1071
I144
g123
tp2920
aag2662
aa(lp2921
(lp2922
(I1125
I198
g46
tp2923
aag2662
aa(lp2924
(lp2925
(I1071
I162
g154
tp2926
aag2662
aa(lp2927
(lp2928
(I1089
I180
g161
tp2929
aag2662
aa(lp2930
(lp2931
(I1089
I252
g46
tp2932
aag2662
aa(lp2933
(lp2934
(I1143
I216
g8
tp2935
aag2662
aa(lp2936
(lp2937
(I1071
I180
g3
tp2938
aag2662
aa(lp2939
(lp2940
(I1107
I171
g16
tp2941
aag2662
aa(lp2942
(lp2943
(I1089
I99
g69
tp2944
aag2662
aa(lp2945
(lp2946
(I1125
I252
g131
tp2947
aag2662
aa(lp2948
(lp2949
(I1125
I99
g20
tp2950
aag2662
aa(lp2951
(lp2952
(I1125
I252
g168
tp2953
aag2662
aa(lp2954
(lp2955
(I1089
I198
g123
tp2956
aag2662
aa(lp2957
(lp2958
(I1089
I207
g3
tp2959
aag2662
aa(lp2960
(lp2961
(I1107
I153
g3
tp2962
aag2662
aa(lp2963
(lp2964
(I1035
I144
g62
tp2965
aag2662
aa(lp2966
(lp2967
(I1143
I234
g154
tp2968
aag2662
aa(lp2969
(lp2970
(I1089
I162
g116
tp2971
aag2662
aa(lp2972
(lp2973
(I1125
I162
g28
tp2974
aag2662
aa(lp2975
(lp2976
(I1071
I261
g77
tp2977
aag2662
aa(lp2978
(lp2979
(I1107
I252
g131
tp2980
aag2662
aa(lp2981
(lp2982
(I1053
I72
g73
tp2983
aag2662
aa(lp2984
(lp2985
(I1107
I261
g144
tp2986
aag2662
aa(lp2987
(lp2988
(I1143
I135
g73
tp2989
aag2662
aa(lp2990
(lp2991
(I1107
I261
g32
tp2992
aag2662
aa(lp2993
(lp2994
(I1071
I162
g46
tp2995
aag2662
aa(lp2996
(lp2997
(I1125
I99
g116
tp2998
aag2662
aa(lp2999
(lp3000
(I1107
I108
g12
tp3001
aag2662
aa(lp3002
(lp3003
(I1107
I144
g46
tp3004
aag2662
aa(lp3005
(lp3006
(I1125
I135
g85
tp3007
aag2662
aa(lp3008
(lp3009
(I1053
I180
g131
tp3010
aag2662
aa(lp3011
(lp3012
(I1143
I270
g69
tp3013
aag2662
aa(lp3014
(lp3015
(I1125
I207
g190
tp3016
aag2662
aa(lp3017
(lp3018
(I1071
I153
g12
tp3019
aag2662
aa(lp3020
(lp3021
(I1089
I99
g123
tp3022
aag2662
aa(lp3023
(lp3024
(I1143
I171
g85
tp3025
aag2662
aa(lp3026
(lp3027
(I1107
I162
g62
tp3028
aag2662
aa(lp3029
(lp3030
(I1035
I117
g28
tp3031
aag2662
aa(lp3032
(lp3033
(I1107
I126
g8
tp3034
aag2662
aa.