(lp0
(lp1
(lp2
(I63
I153
S'l'
p3
tp4
aaS'0'
p5
aa(lp6
(lp7
(I135
I261
S'd'
p8
tp9
aag5
aa(lp10
(lp11
(I81
I162
S'n'
p12
tp13
aag5
aa(lp14
(lp15
(I45
I216
S's'
p16
tp17
aag5
aa(lp18
(lp19
(I45
I72
S'a'
p20
tp21
aag5
aa(lp22
(lp23
(I81
I117
S'j'
p24
tp25
aag5
aa(lp26
(lp27
(I63
I108
S't'
p28
tp29
aag5
aa(lp30
(lp31
(I99
I90
S'i'
p32
tp33
aag5
aa(lp34
(lp35
(I63
I144
S'h'
p36
tp37
aag5
aa(lp38
(lp39
(I99
I99
S'v'
p40
tp41
aag5
aa(lp42
(lp43
(I243
I270
S'q'
p44
tp45
aaS'1'
p46
aa(lp47
(lp48
(I279
I117
S'g'
p49
tp50
aag46
aa(lp51
(lp52
(I279
I261
g16
tp53
aag46
aa(lp54
(lp55
(I243
I144
S'k'
p56
tp57
aag46
aa(lp58
(lp59
(I243
I108
g40
tp60
aag46
aa(lp61
(lp62
(I207
I144
g16
tp63
aag46
aa(lp64
(lp65
(I261
I189
g8
tp66
aag46
aa(lp67
(lp68
(I261
I216
S'p'
p69
tp70
aag46
aa(lp71
(lp72
(I261
I261
S'x'
p73
tp74
aag46
aa(lp75
(lp76
(I243
I189
S'f'
p77
tp78
aag46
aa(lp79
(lp80
(I369
I270
g69
tp81
aaS'2'
p82
aa(lp83
(lp84
(I405
I117
S'o'
p85
tp86
aag82
aa(lp87
(lp88
(I351
I117
g77
tp89
aag82
aa(lp90
(lp91
(I387
I126
S'u'
p92
tp93
aag82
aa(lp94
(lp95
(I405
I180
S'w'
p96
tp97
aag82
aa(lp98
(lp99
(I405
I144
S'z'
p100
tp101
aag82
aa(lp102
(lp103
(I387
I216
g44
tp104
aag82
aa(lp105
(lp106
(I405
I198
g8
tp107
aag82
aa(lp108
(lp109
(I423
I90
g12
tp110
aag82
aa(lp111
(lp112
(I351
I135
S'c'
p113
tp114
aag82
aa(lp115
(lp116
(I549
I189
S'e'
p117
tp118
aaS'3'
p119
aa(lp120
(lp121
(I567
I252
g24
tp122
aag119
aa(lp123
(lp124
(I459
I117
S'm'
p125
tp126
aag119
aa(lp127
(lp128
(I549
I243
g73
tp129
aag119
aa(lp130
(lp131
(I477
I117
g36
tp132
aag119
aa(lp133
(lp134
(I477
I135
S'b'
p135
tp136
aag119
aa(lp137
(lp138
(I567
I108
g85
tp139
aag119
aa(lp140
(lp141
(I477
I81
S'y'
p142
tp143
aag119
aa(lp144
(lp145
(I495
I135
S'r'
p146
tp147
aag119
aa(lp148
(lp149
(I531
I126
g69
tp150
aag119
aa(lp151
(lp152
(I639
I216
g28
tp153
aaS'4'
p154
aa(lp155
(lp156
(I693
I180
g40
tp157
aag154
aa(lp158
(lp159
(I621
I252
g49
tp160
aag154
aa(lp161
(lp162
(I657
I243
g20
tp163
aag154
aa(lp164
(lp165
(I621
I72
g20
tp166
aag154
aa(lp167
(lp168
(I639
I144
g24
tp169
aag154
aa(lp170
(lp171
(I657
I243
g100
tp172
aag154
aa(lp173
(lp174
(I639
I99
g85
tp175
aag154
aa(lp176
(lp177
(I693
I270
g56
tp178
aag154
aa(lp179
(lp180
(I657
I153
g85
tp181
aag154
aa(lp182
(lp183
(I819
I189
g49
tp184
aaS'5'
p185
aa(lp186
(lp187
(I855
I180
g77
tp188
aag185
aa(lp189
(lp190
(I801
I72
g28
tp191
aag185
aa(lp192
(lp193
(I747
I243
g32
tp194
aag185
aa(lp195
(lp196
(I837
I117
g49
tp197
aag185
aa(lp198
(lp199
(I855
I270
g28
tp200
aag185
aa(lp201
(lp202
(I837
I270
g113
tp203
aag185
aa(lp204
(lp205
(I765
I225
g96
tp206
aag185
aa(lp207
(lp208
(I801
I153
g142
tp209
aag185
aa(lp210
(lp211
(I837
I189
g85
tp212
aag185
aa(lp213
(lp214
(I891
I180
g32
tp215
aaS'6'
p216
aa(lp217
(lp218
(I963
I162
g8
tp219
aag216
aa(lp220
(lp221
(I981
I207
g32
tp222
aag216
aa(lp223
(lp224
(I999
I198
g142
tp225
aag216
aa(lp226
(lp227
(I945
I90
g125
tp228
aag216
aa(lp229
(lp230
(I909
I216
g96
tp231
aag216
aa(lp232
(lp233
(I963
I153
g146
tp234
aag216
aa(lp235
(lp236
(I963
I90
g56
tp237
aag216
aa(lp238
(lp239
(I909
I189
g117
tp240
aag216
aa(lp241
(lp242
(I963
I216
g36
tp243
aag216
aa(lp244
(lp245
(I1035
I90
g24
tp246
aaS'7'
p247
aa(lp248
(lp249
(I1143
I252
g32
tp250
aag247
aa(lp251
(lp252
(I1107
I207
g100
tp253
aag247
aa(lp254
(lp255
(I1143
I243
g8
tp256
aag247
aa(lp257
(lp258
(I1125
I162
g117
tp259
aag247
aa(lp260
(lp261
(I1071
I216
g100
tp262
aag247
aa(lp263
(lp264
(I1107
I72
g135
tp265
aag247
aa(lp266
(lp267
(I1071
I198
g3
tp268
aag247
aa(lp269
(lp270
(I1071
I270
g36
tp271
aag247
aa(lp272
(lp273
(I1071
I180
g24
tp274
aag247
aa.