(lp0
(lp1
(I45
I72
S'a'
p2
tp3
a(I27
I207
S'f'
p4
tp5
a(I135
I99
S'k'
p6
tp7
a(I27
I180
S't'
p8
tp9
a(I45
I234
g2
tp10
a(I27
I126
S'l'
p11
tp12
a(I99
I162
S'm'
p13
tp14
a(I117
I270
S'i'
p15
tp16
a(I99
I198
S'z'
p17
tp18
a(I81
I90
g8
tp19
a(I99
I180
S'r'
p20
tp21
a(I45
I63
g6
tp22
aa(lp23
(I171
I216
S's'
p24
tp25
a(I243
I261
S'b'
p26
tp27
a(I279
I108
S'x'
p28
tp29
a(I207
I162
S'p'
p30
tp31
a(I243
I126
S'o'
p32
tp33
a(I243
I153
g2
tp34
a(I279
I108
g11
tp35
a(I279
I270
S'u'
p36
tp37
a(I189
I225
g15
tp38
a(I207
I135
S'd'
p39
tp40
a(I225
I180
g2
tp41
a(I225
I90
S'v'
p42
tp43
aa(lp44
(I423
I108
S'w'
p45
tp46
a(I315
I189
S'e'
p47
tp48
a(I387
I234
S'g'
p49
tp50
a(I333
I243
S'j'
p51
tp52
a(I333
I153
g30
tp53
a(I369
I198
g20
tp54
a(I387
I261
g30
tp55
a(I351
I252
g4
tp56
a(I405
I180
g39
tp57
a(I315
I252
g26
tp58
a(I369
I261
g28
tp59
a(I369
I108
g4
tp60
aa(lp61
(I459
I225
S'c'
p62
tp63
a(I531
I243
g39
tp64
a(I495
I216
g32
tp65
a(I477
I126
S'h'
p66
tp67
a(I567
I108
S'y'
p68
tp69
a(I495
I216
g42
tp70
a(I459
I189
g39
tp71
a(I477
I162
g2
tp72
a(I531
I261
g51
tp73
a(I495
I90
g30
tp74
a(I567
I171
S'q'
p75
tp76
a(I495
I153
g68
tp77
aa(lp78
(I693
I225
g51
tp79
a(I639
I252
g8
tp80
a(I639
I108
g15
tp81
a(I639
I90
g62
tp82
a(I603
I234
g42
tp83
a(I675
I225
g68
tp84
a(I621
I144
g75
tp85
a(I657
I252
g47
tp86
a(I675
I225
g47
tp87
a(I621
I225
g42
tp88
a(I675
I72
g62
tp89
a(I639
I243
g24
tp90
aa(lp91
(I801
I216
S'n'
p92
tp93
a(I855
I198
g68
tp94
a(I819
I180
g66
tp95
a(I855
I99
g17
tp96
a(I837
I108
g11
tp97
a(I801
I225
g26
tp98
a(I765
I81
g15
tp99
a(I837
I270
g47
tp100
a(I783
I117
g28
tp101
a(I837
I126
g11
tp102
a(I855
I90
g30
tp103
a(I819
I135
g45
tp104
aa(lp105
(I927
I216
g6
tp106
a(I927
I90
g2
tp107
a(I927
I108
g8
tp108
a(I909
I126
g17
tp109
a(I909
I216
g24
tp110
a(I999
I90
g45
tp111
a(I945
I270
g51
tp112
a(I963
I108
g68
tp113
a(I963
I144
g6
tp114
a(I981
I261
g17
tp115
a(I963
I270
g45
tp116
a(I999
I189
g39
tp117
aa(lp118
(I1143
I162
g24
tp119
a(I1053
I99
g51
tp120
a(I1089
I198
g26
tp121
a(I1035
I216
g11
tp122
a(I1143
I216
g42
tp123
a(I1071
I153
g28
tp124
a(I1089
I243
g51
tp125
a(I1053
I153
g45
tp126
a(I1071
I216
g92
tp127
a(I1107
I90
g47
tp128
a(I1053
I72
g92
tp129
a(I1035
I189
g17
tp130
aa.