(lp0
(lp1
(lp2
(I135
I63
S'x'
p3
tp4
aaS'0'
p5
aa(lp6
(lp7
(I81
I225
S'p'
p8
tp9
aag5
aa(lp10
(lp11
(I45
I72
g3
tp12
aag5
aa(lp13
(lp14
(I99
I189
S'w'
p15
tp16
aag5
aa(lp17
(lp18
(I45
I216
S'b'
p19
tp20
aag5
aa(lp21
(lp22
(I27
I81
S'q'
p23
tp24
aag5
aa(lp25
(lp26
(I27
I171
S'j'
p27
tp28
aag5
aa(lp29
(lp30
(I99
I162
S's'
p31
tp32
aag5
aa(lp33
(lp34
(I135
I63
g27
tp35
aag5
aa(lp36
(lp37
(I135
I162
S'a'
p38
tp39
aag5
aa(lp40
(lp41
(I63
I207
S'k'
p42
tp43
aag5
aa(lp44
(lp45
(I117
I270
S'm'
p46
tp47
aag5
aa(lp48
(lp49
(I117
I171
S'y'
p50
tp51
aag5
aa(lp52
(lp53
(I45
I198
S't'
p54
tp55
aag5
aa(lp56
(lp57
(I63
I81
S'd'
p58
tp59
aag5
aa(lp60
(lp61
(I135
I207
g38
tp62
aag5
aa(lp63
(lp64
(I63
I180
g27
tp65
aag5
aa(lp66
(lp67
(I45
I117
g46
tp68
aag5
aa(lp69
(lp70
(I45
I225
g54
tp71
aag5
aa(lp72
(lp73
(I27
I162
g27
tp74
aag5
aa(lp75
(lp76
(I63
I99
S'u'
p77
tp78
aag5
aa(lp79
(lp80
(I81
I144
g46
tp81
aag5
aa(lp82
(lp83
(I117
I189
g27
tp84
aag5
aa(lp85
(lp86
(I99
I117
g54
tp87
aag5
aa(lp88
(lp89
(I135
I243
g23
tp90
aag5
aa(lp91
(lp92
(I45
I261
S'g'
p93
tp94
aag5
aa(lp95
(lp96
(I135
I234
S'o'
p97
tp98
aag5
aa(lp99
(lp100
(I45
I81
S'z'
p101
tp102
aag5
aa(lp103
(lp104
(I117
I81
g3
tp105
aag5
aa(lp106
(lp107
(I81
I207
S'f'
p108
tp109
aag5
aa(lp110
(lp111
(I135
I270
g31
tp112
aag5
aa(lp113
(lp114
(I27
I189
S'v'
p115
tp116
aag5
aa(lp117
(lp118
(I45
I81
S'r'
p119
tp120
aag5
aa(lp121
(lp122
(I99
I252
g15
tp123
aag5
aa(lp124
(lp125
(I117
I198
g42
tp126
aag5
aa(lp127
(lp128
(I135
I198
g19
tp129
aag5
aa(lp130
(lp131
(I99
I234
S'l'
p132
tp133
aag5
aa(lp134
(lp135
(I135
I252
g31
tp136
aag5
aa(lp137
(lp138
(I135
I234
S'e'
p139
tp140
aag5
aa(lp141
(lp142
(I135
I180
g50
tp143
aag5
aa(lp144
(lp145
(I81
I189
S'h'
p146
tp147
aag5
aa(lp148
(lp149
(I135
I90
S'n'
p150
tp151
aag5
aa(lp152
(lp153
(I81
I135
g54
tp154
aag5
aa(lp155
(lp156
(I135
I72
g119
tp157
aag5
aa(lp158
(lp159
(I45
I261
g58
tp160
aag5
aa(lp161
(lp162
(I45
I225
g19
tp163
aag5
aa(lp164
(lp165
(I63
I90
g108
tp166
aag5
aa(lp167
(lp168
(I99
I243
g146
tp169
aag5
aa(lp170
(lp171
(I63
I81
g19
tp172
aag5
aa(lp173
(lp174
(I99
I108
S'i'
p175
tp176
aag5
aa(lp177
(lp178
(I171
I252
g31
tp179
aaS'1'
p180
aa(lp181
(lp182
(I189
I180
g139
tp183
aag180
aa(lp184
(lp185
(I243
I135
g139
tp186
aag180
aa(lp187
(lp188
(I279
I198
g50
tp189
aag180
aa(lp190
(lp191
(I243
I261
g50
tp192
aag180
aa(lp193
(lp194
(I279
I135
g19
tp195
aag180
aa(lp196
(lp197
(I261
I90
g77
tp198
aag180
aa(lp199
(lp200
(I225
I234
g150
tp201
aag180
aa(lp202
(lp203
(I243
I72
g101
tp204
aag180
aa(lp205
(lp206
(I225
I117
g101
tp207
aag180
aa(lp208
(lp209
(I279
I171
g150
tp210
aag180
aa(lp211
(lp212
(I171
I126
g8
tp213
aag180
aa(lp214
(lp215
(I261
I108
g175
tp216
aag180
aa(lp217
(lp218
(I261
I126
g8
tp219
aag180
aa(lp220
(lp221
(I261
I207
g101
tp222
aag180
aa(lp223
(lp224
(I207
I117
g27
tp225
aag180
aa(lp226
(lp227
(I225
I171
g27
tp228
aag180
aa(lp229
(lp230
(I207
I225
S'c'
p231
tp232
aag180
aa(lp233
(lp234
(I279
I99
g146
tp235
aag180
aa(lp236
(lp237
(I189
I90
g27
tp238
aag180
aa(lp239
(lp240
(I279
I261
g132
tp241
aag180
aa(lp242
(lp243
(I207
I135
g93
tp244
aag180
aa(lp245
(lp246
(I279
I261
g119
tp247
aag180
aa(lp248
(lp249
(I243
I252
g50
tp250
aag180
aa(lp251
(lp252
(I279
I81
g19
tp253
aag180
aa(lp254
(lp255
(I225
I261
g31
tp256
aag180
aa(lp257
(lp258
(I243
I162
g38
tp259
aag180
aa(lp260
(lp261
(I207
I171
g3
tp262
aag180
aa(lp263
(lp264
(I261
I270
g27
tp265
aag180
aa(lp266
(lp267
(I225
I171
g139
tp268
aag180
aa(lp269
(lp270
(I243
I216
g50
tp271
aag180
aa(lp272
(lp273
(I243
I252
g146
tp274
aag180
aa(lp275
(lp276
(I225
I108
g38
tp277
aag180
aa(lp278
(lp279
(I261
I252
g54
tp280
aag180
aa(lp281
(lp282
(I279
I225
g54
tp283
aag180
aa(lp284
(lp285
(I225
I225
g8
tp286
aag180
aa(lp287
(lp288
(I189
I135
g31
tp289
aag180
aa(lp290
(lp291
(I261
I171
g101
tp292
aag180
aa(lp293
(lp294
(I243
I198
g23
tp295
aag180
aa(lp296
(lp297
(I207
I198
g93
tp298
aag180
aa(lp299
(lp300
(I189
I90
g27
tp301
aag180
aa(lp302
(lp303
(I261
I81
g54
tp304
aag180
aa(lp305
(lp306
(I225
I270
g139
tp307
aag180
aa(lp308
(lp309
(I207
I225
g50
tp310
aag180
aa(lp311
(lp312
(I171
I153
g150
tp313
aag180
aa(lp314
(lp315
(I171
I261
g27
tp316
aag180
aa(lp317
(lp318
(I225
I126
g132
tp319
aag180
aa(lp320
(lp321
(I243
I72
g38
tp322
aag180
aa(lp323
(lp324
(I261
I216
g101
tp325
aag180
aa(lp326
(lp327
(I261
I126
g23
tp328
aag180
aa(lp329
(lp330
(I405
I81
g27
tp331
aaS'2'
p332
aa(lp333
(lp334
(I333
I108
g3
tp335
aag332
aa(lp336
(lp337
(I351
I144
g50
tp338
aag332
aa(lp339
(lp340
(I369
I81
g93
tp341
aag332
aa(lp342
(lp343
(I369
I216
g3
tp344
aag332
aa(lp345
(lp346
(I333
I99
g50
tp347
aag332
aa(lp348
(lp349
(I387
I225
g132
tp350
aag332
aa(lp351
(lp352
(I333
I126
g101
tp353
aag332
aa(lp354
(lp355
(I333
I180
g58
tp356
aag332
aa(lp357
(lp358
(I387
I216
g50
tp359
aag332
aa(lp360
(lp361
(I405
I216
g15
tp362
aag332
aa(lp363
(lp364
(I333
I108
g38
tp365
aag332
aa(lp366
(lp367
(I369
I117
g108
tp368
aag332
aa(lp369
(lp370
(I423
I216
g54
tp371
aag332
aa(lp372
(lp373
(I333
I243
g50
tp374
aag332
aa(lp375
(lp376
(I423
I252
g19
tp377
aag332
aa(lp378
(lp379
(I351
I189
g46
tp380
aag332
aa(lp381
(lp382
(I315
I81
g31
tp383
aag332
aa(lp384
(lp385
(I315
I180
g8
tp386
aag332
aa(lp387
(lp388
(I387
I72
g8
tp389
aag332
aa(lp390
(lp391
(I387
I81
g8
tp392
aag332
aa(lp393
(lp394
(I405
I198
g8
tp395
aag332
aa(lp396
(lp397
(I405
I135
g27
tp398
aag332
aa(lp399
(lp400
(I405
I207
g50
tp401
aag332
aa(lp402
(lp403
(I351
I90
g31
tp404
aag332
aa(lp405
(lp406
(I387
I225
g38
tp407
aag332
aa(lp408
(lp409
(I405
I135
g139
tp410
aag332
aa(lp411
(lp412
(I423
I108
g146
tp413
aag332
aa(lp414
(lp415
(I315
I216
g58
tp416
aag332
aa(lp417
(lp418
(I423
I198
g119
tp419
aag332
aa(lp420
(lp421
(I387
I162
g132
tp422
aag332
aa(lp423
(lp424
(I351
I135
g31
tp425
aag332
aa(lp426
(lp427
(I387
I81
g97
tp428
aag332
aa(lp429
(lp430
(I387
I180
g108
tp431
aag332
aa(lp432
(lp433
(I423
I90
g15
tp434
aag332
aa(lp435
(lp436
(I423
I207
g58
tp437
aag332
aa(lp438
(lp439
(I351
I189
g115
tp440
aag332
aa(lp441
(lp442
(I351
I180
g175
tp443
aag332
aa(lp444
(lp445
(I387
I126
g175
tp446
aag332
aa(lp447
(lp448
(I387
I243
g42
tp449
aag332
aa(lp450
(lp451
(I351
I72
g15
tp452
aag332
aa(lp453
(lp454
(I369
I189
g8
tp455
aag332
aa(lp456
(lp457
(I369
I108
g150
tp458
aag332
aa(lp459
(lp460
(I333
I207
g119
tp461
aag332
aa(lp462
(lp463
(I315
I180
g8
tp464
aag332
aa(lp465
(lp466
(I333
I108
g8
tp467
aag332
aa(lp468
(lp469
(I351
I117
g15
tp470
aag332
aa(lp471
(lp472
(I387
I153
g146
tp473
aag332
aa(lp474
(lp475
(I369
I72
g119
tp476
aag332
aa(lp477
(lp478
(I387
I135
g50
tp479
aag332
aa(lp480
(lp481
(I513
I243
g38
tp482
aaS'3'
p483
aa(lp484
(lp485
(I459
I126
g3
tp486
aag483
aa(lp487
(lp488
(I513
I261
g97
tp489
aag483
aa(lp490
(lp491
(I531
I90
g15
tp492
aag483
aa(lp493
(lp494
(I567
I270
g108
tp495
aag483
aa(lp496
(lp497
(I477
I252
g93
tp498
aag483
aa(lp499
(lp500
(I477
I225
g23
tp501
aag483
aa(lp502
(lp503
(I459
I225
g175
tp504
aag483
aa(lp505
(lp506
(I567
I162
g50
tp507
aag483
aa(lp508
(lp509
(I549
I126
g132
tp510
aag483
aa(lp511
(lp512
(I513
I216
g8
tp513
aag483
aa(lp514
(lp515
(I495
I135
g3
tp516
aag483
aa(lp517
(lp518
(I549
I189
g132
tp519
aag483
aa(lp520
(lp521
(I459
I261
g46
tp522
aag483
aa(lp523
(lp524
(I531
I180
g42
tp525
aag483
aa(lp526
(lp527
(I549
I198
g42
tp528
aag483
aa(lp529
(lp530
(I459
I99
g19
tp531
aag483
aa(lp532
(lp533
(I477
I189
g77
tp534
aag483
aa(lp535
(lp536
(I549
I162
g42
tp537
aag483
aa(lp538
(lp539
(I513
I72
g15
tp540
aag483
aa(lp541
(lp542
(I567
I180
g46
tp543
aag483
aa(lp544
(lp545
(I477
I234
g115
tp546
aag483
aa(lp547
(lp548
(I531
I234
g31
tp549
aag483
aa(lp550
(lp551
(I477
I261
g231
tp552
aag483
aa(lp553
(lp554
(I513
I225
g97
tp555
aag483
aa(lp556
(lp557
(I459
I81
g3
tp558
aag483
aa(lp559
(lp560
(I531
I81
g97
tp561
aag483
aa(lp562
(lp563
(I477
I171
g46
tp564
aag483
aa(lp565
(lp566
(I495
I207
g132
tp567
aag483
aa(lp568
(lp569
(I567
I225
g19
tp570
aag483
aa(lp571
(lp572
(I513
I207
g3
tp573
aag483
aa(lp574
(lp575
(I531
I153
g101
tp576
aag483
aa(lp577
(lp578
(I531
I135
g19
tp579
aag483
aa(lp580
(lp581
(I549
I216
g23
tp582
aag483
aa(lp583
(lp584
(I495
I198
g19
tp585
aag483
aa(lp586
(lp587
(I495
I144
g58
tp588
aag483
aa(lp589
(lp590
(I513
I180
g42
tp591
aag483
aa(lp592
(lp593
(I477
I216
g119
tp594
aag483
aa(lp595
(lp596
(I495
I135
g150
tp597
aag483
aa(lp598
(lp599
(I495
I243
g19
tp600
aag483
aa(lp601
(lp602
(I549
I99
g27
tp603
aag483
aa(lp604
(lp605
(I549
I270
g150
tp606
aag483
aa(lp607
(lp608
(I531
I198
g50
tp609
aag483
aa(lp610
(lp611
(I531
I189
g150
tp612
aag483
aa(lp613
(lp614
(I549
I162
g54
tp615
aag483
aa(lp616
(lp617
(I567
I261
g150
tp618
aag483
aa(lp619
(lp620
(I531
I189
g93
tp621
aag483
aa(lp622
(lp623
(I459
I225
g15
tp624
aag483
aa(lp625
(lp626
(I495
I225
g139
tp627
aag483
aa(lp628
(lp629
(I459
I117
g23
tp630
aag483
aa(lp631
(lp632
(I675
I108
g146
tp633
aaS'4'
p634
aa(lp635
(lp636
(I693
I162
g108
tp637
aag634
aa(lp638
(lp639
(I693
I252
g58
tp640
aag634
aa(lp641
(lp642
(I675
I261
g108
tp643
aag634
aa(lp644
(lp645
(I657
I90
g132
tp646
aag634
aa(lp647
(lp648
(I711
I198
g31
tp649
aag634
aa(lp650
(lp651
(I621
I117
g27
tp652
aag634
aa(lp653
(lp654
(I639
I144
g42
tp655
aag634
aa(lp656
(lp657
(I657
I72
g97
tp658
aag634
aa(lp659
(lp660
(I693
I153
g97
tp661
aag634
aa(lp662
(lp663
(I675
I171
g42
tp664
aag634
aa(lp665
(lp666
(I675
I153
g58
tp667
aag634
aa(lp668
(lp669
(I675
I225
g101
tp670
aag634
aa(lp671
(lp672
(I711
I171
g15
tp673
aag634
aa(lp674
(lp675
(I693
I270
g15
tp676
aag634
aa(lp677
(lp678
(I621
I216
g3
tp679
aag634
aa(lp680
(lp681
(I675
I225
g108
tp682
aag634
aa(lp683
(lp684
(I603
I72
g115
tp685
aag634
aa(lp686
(lp687
(I693
I81
g93
tp688
aag634
aa(lp689
(lp690
(I657
I270
g108
tp691
aag634
aa(lp692
(lp693
(I639
I180
g8
tp694
aag634
aa(lp695
(lp696
(I603
I117
g175
tp697
aag634
aa(lp698
(lp699
(I621
I135
g27
tp700
aag634
aa(lp701
(lp702
(I639
I207
g15
tp703
aag634
aa(lp704
(lp705
(I621
I225
g50
tp706
aag634
aa(lp707
(lp708
(I639
I72
g54
tp709
aag634
aa(lp710
(lp711
(I675
I81
g175
tp712
aag634
aa(lp713
(lp714
(I711
I234
g119
tp715
aag634
aa(lp716
(lp717
(I603
I144
g8
tp718
aag634
aa(lp719
(lp720
(I693
I171
g31
tp721
aag634
aa(lp722
(lp723
(I657
I189
g31
tp724
aag634
aa(lp725
(lp726
(I675
I198
g50
tp727
aag634
aa(lp728
(lp729
(I675
I252
g119
tp730
aag634
aa(lp731
(lp732
(I711
I198
g58
tp733
aag634
aa(lp734
(lp735
(I711
I153
g23
tp736
aag634
aa(lp737
(lp738
(I621
I198
g93
tp739
aag634
aa(lp740
(lp741
(I639
I189
g46
tp742
aag634
aa(lp743
(lp744
(I693
I99
g42
tp745
aag634
aa(lp746
(lp747
(I621
I216
g175
tp748
aag634
aa(lp749
(lp750
(I693
I252
g115
tp751
aag634
aa(lp752
(lp753
(I711
I261
g38
tp754
aag634
aa(lp755
(lp756
(I603
I81
g93
tp757
aag634
aa(lp758
(lp759
(I639
I180
g93
tp760
aag634
aa(lp761
(lp762
(I693
I243
g38
tp763
aag634
aa(lp764
(lp765
(I675
I261
g50
tp766
aag634
aa(lp767
(lp768
(I693
I72
g97
tp769
aag634
aa(lp770
(lp771
(I639
I108
g132
tp772
aag634
aa(lp773
(lp774
(I621
I216
g3
tp775
aag634
aa(lp776
(lp777
(I657
I153
g97
tp778
aag634
aa(lp779
(lp780
(I603
I252
g119
tp781
aag634
aa(lp782
(lp783
(I801
I207
g50
tp784
aaS'5'
p785
aa(lp786
(lp787
(I783
I252
g115
tp788
aag785
aa(lp789
(lp790
(I819
I117
g175
tp791
aag785
aa(lp792
(lp793
(I837
I198
g175
tp794
aag785
aa(lp795
(lp796
(I855
I243
g93
tp797
aag785
aa(lp798
(lp799
(I837
I261
g3
tp800
aag785
aa(lp801
(lp802
(I837
I216
g27
tp803
aag785
aa(lp804
(lp805
(I801
I243
g3
tp806
aag785
aa(lp807
(lp808
(I855
I180
g23
tp809
aag785
aa(lp810
(lp811
(I765
I99
g27
tp812
aag785
aa(lp813
(lp814
(I837
I153
g119
tp815
aag785
aa(lp816
(lp817
(I747
I135
g38
tp818
aag785
aa(lp819
(lp820
(I747
I144
g23
tp821
aag785
aa(lp822
(lp823
(I783
I81
g150
tp824
aag785
aa(lp825
(lp826
(I855
I243
g46
tp827
aag785
aa(lp828
(lp829
(I837
I135
g132
tp830
aag785
aa(lp831
(lp832
(I837
I243
g231
tp833
aag785
aa(lp834
(lp835
(I837
I171
g8
tp836
aag785
aa(lp837
(lp838
(I819
I261
g115
tp839
aag785
aa(lp840
(lp841
(I855
I126
g115
tp842
aag785
aa(lp843
(lp844
(I819
I135
g132
tp845
aag785
aa(lp846
(lp847
(I837
I144
g27
tp848
aag785
aa(lp849
(lp850
(I747
I189
g77
tp851
aag785
aa(lp852
(lp853
(I837
I261
g77
tp854
aag785
aa(lp855
(lp856
(I837
I207
g15
tp857
aag785
aa(lp858
(lp859
(I819
I144
g115
tp860
aag785
aa(lp861
(lp862
(I765
I198
g93
tp863
aag785
aa(lp864
(lp865
(I837
I144
g97
tp866
aag785
aa(lp867
(lp868
(I819
I216
g8
tp869
aag785
aa(lp870
(lp871
(I855
I198
g139
tp872
aag785
aa(lp873
(lp874
(I819
I153
g23
tp875
aag785
aa(lp876
(lp877
(I855
I234
g77
tp878
aag785
aa(lp879
(lp880
(I855
I117
g31
tp881
aag785
aa(lp882
(lp883
(I819
I189
g97
tp884
aag785
aa(lp885
(lp886
(I819
I252
g132
tp887
aag785
aa(lp888
(lp889
(I837
I270
g3
tp890
aag785
aa(lp891
(lp892
(I855
I144
g93
tp893
aag785
aa(lp894
(lp895
(I819
I198
g119
tp896
aag785
aa(lp897
(lp898
(I819
I81
g8
tp899
aag785
aa(lp900
(lp901
(I801
I144
g115
tp902
aag785
aa(lp903
(lp904
(I783
I162
g175
tp905
aag785
aa(lp906
(lp907
(I837
I270
g108
tp908
aag785
aa(lp909
(lp910
(I747
I81
g175
tp911
aag785
aa(lp912
(lp913
(I765
I216
g15
tp914
aag785
aa(lp915
(lp916
(I837
I171
g3
tp917
aag785
aa(lp918
(lp919
(I783
I189
g150
tp920
aag785
aa(lp921
(lp922
(I819
I243
g15
tp923
aag785
aa(lp924
(lp925
(I855
I90
g19
tp926
aag785
aa(lp927
(lp928
(I837
I153
g231
tp929
aag785
aa(lp930
(lp931
(I837
I108
g54
tp932
aag785
aa(lp933
(lp934
(I981
I180
g27
tp935
aaS'6'
p936
aa(lp937
(lp938
(I927
I135
g54
tp939
aag936
aa(lp940
(lp941
(I927
I153
g132
tp942
aag936
aa(lp943
(lp944
(I981
I90
g23
tp945
aag936
aa(lp946
(lp947
(I963
I216
g8
tp948
aag936
aa(lp949
(lp950
(I927
I99
g31
tp951
aag936
aa(lp952
(lp953
(I981
I270
g139
tp954
aag936
aa(lp955
(lp956
(I927
I162
g101
tp957
aag936
aa(lp958
(lp959
(I981
I234
g27
tp960
aag936
aa(lp961
(lp962
(I963
I171
g119
tp963
aag936
aa(lp964
(lp965
(I945
I261
g8
tp966
aag936
aa(lp967
(lp968
(I981
I207
g175
tp969
aag936
aa(lp970
(lp971
(I981
I234
g115
tp972
aag936
aa(lp973
(lp974
(I999
I180
g42
tp975
aag936
aa(lp976
(lp977
(I963
I171
g119
tp978
aag936
aa(lp979
(lp980
(I891
I72
g3
tp981
aag936
aa(lp982
(lp983
(I945
I171
g77
tp984
aag936
aa(lp985
(lp986
(I945
I234
g38
tp987
aag936
aa(lp988
(lp989
(I891
I243
g93
tp990
aag936
aa(lp991
(lp992
(I945
I81
g146
tp993
aag936
aa(lp994
(lp995
(I909
I171
g54
tp996
aag936
aa(lp997
(lp998
(I927
I153
g46
tp999
aag936
aa(lp1000
(lp1001
(I927
I198
g231
tp1002
aag936
aa(lp1003
(lp1004
(I999
I144
g146
tp1005
aag936
aa(lp1006
(lp1007
(I999
I270
g50
tp1008
aag936
aa(lp1009
(lp1010
(I927
I126
g3
tp1011
aag936
aa(lp1012
(lp1013
(I891
I108
g77
tp1014
aag936
aa(lp1015
(lp1016
(I963
I198
g46
tp1017
aag936
aa(lp1018
(lp1019
(I945
I243
g146
tp1020
aag936
aa(lp1021
(lp1022
(I999
I153
g15
tp1023
aag936
aa(lp1024
(lp1025
(I945
I207
g101
tp1026
aag936
aa(lp1027
(lp1028
(I909
I81
g175
tp1029
aag936
aa(lp1030
(lp1031
(I945
I171
g15
tp1032
aag936
aa(lp1033
(lp1034
(I927
I243
g54
tp1035
aag936
aa(lp1036
(lp1037
(I891
I189
g23
tp1038
aag936
aa(lp1039
(lp1040
(I981
I234
g3
tp1041
aag936
aa(lp1042
(lp1043
(I891
I243
g231
tp1044
aag936
aa(lp1045
(lp1046
(I999
I108
g150
tp1047
aag936
aa(lp1048
(lp1049
(I945
I252
g54
tp1050
aag936
aa(lp1051
(lp1052
(I963
I162
g58
tp1053
aag936
aa(lp1054
(lp1055
(I945
I81
g150
tp1056
aag936
aa(lp1057
(lp1058
(I981
I144
g175
tp1059
aag936
aa(lp1060
(lp1061
(I999
I108
g97
tp1062
aag936
aa(lp1063
(lp1064
(I927
I198
g50
tp1065
aag936
aa(lp1066
(lp1067
(I909
I216
g115
tp1068
aag936
aa(lp1069
(lp1070
(I963
I207
g97
tp1071
aag936
aa(lp1072
(lp1073
(I945
I252
g38
tp1074
aag936
aa(lp1075
(lp1076
(I891
I90
g97
tp1077
aag936
aa(lp1078
(lp1079
(I981
I99
g146
tp1080
aag936
aa(lp1081
(lp1082
(I945
I90
g38
tp1083
aag936
aa(lp1084
(lp1085
(I1143
I72
g93
tp1086
aaS'7'
p1087
aa(lp1088
(lp1089
(I1071
I234
g77
tp1090
aag1087
aa(lp1091
(lp1092
(I1143
I252
g46
tp1093
aag1087
aa(lp1094
(lp1095
(I1071
I180
g31
tp1096
aag1087
aa(lp1097
(lp1098
(I1053
I90
g108
tp1099
aag1087
aa(lp1100
(lp1101
(I1089
I171
g139
tp1102
aag1087
aa(lp1103
(lp1104
(I1053
I207
g58
tp1105
aag1087
aa(lp1106
(lp1107
(I1089
I261
g15
tp1108
aag1087
aa(lp1109
(lp1110
(I1089
I81
g50
tp1111
aag1087
aa(lp1112
(lp1113
(I1143
I162
g8
tp1114
aag1087
aa(lp1115
(lp1116
(I1125
I225
g3
tp1117
aag1087
aa(lp1118
(lp1119
(I1071
I135
g42
tp1120
aag1087
aa(lp1121
(lp1122
(I1089
I270
g15
tp1123
aag1087
aa(lp1124
(lp1125
(I1053
I162
g115
tp1126
aag1087
aa(lp1127
(lp1128
(I1089
I72
g19
tp1129
aag1087
aa(lp1130
(lp1131
(I1089
I189
g77
tp1132
aag1087
aa(lp1133
(lp1134
(I1071
I90
g119
tp1135
aag1087
aa(lp1136
(lp1137
(I1089
I144
g38
tp1138
aag1087
aa(lp1139
(lp1140
(I1107
I162
g175
tp1141
aag1087
aa(lp1142
(lp1143
(I1089
I153
g139
tp1144
aag1087
aa(lp1145
(lp1146
(I1035
I135
g175
tp1147
aag1087
aa(lp1148
(lp1149
(I1143
I144
g3
tp1150
aag1087
aa(lp1151
(lp1152
(I1107
I252
g58
tp1153
aag1087
aa(lp1154
(lp1155
(I1125
I90
g146
tp1156
aag1087
aa(lp1157
(lp1158
(I1125
I81
g231
tp1159
aag1087
aa(lp1160
(lp1161
(I1125
I180
g97
tp1162
aag1087
aa(lp1163
(lp1164
(I1071
I180
g23
tp1165
aag1087
aa(lp1166
(lp1167
(I1143
I171
g3
tp1168
aag1087
aa(lp1169
(lp1170
(I1107
I270
g139
tp1171
aag1087
aa(lp1172
(lp1173
(I1071
I126
g58
tp1174
aag1087
aa(lp1175
(lp1176
(I1089
I270
g231
tp1177
aag1087
aa(lp1178
(lp1179
(I1071
I171
g101
tp1180
aag1087
aa(lp1181
(lp1182
(I1071
I234
g93
tp1183
aag1087
aa(lp1184
(lp1185
(I1143
I270
g139
tp1186
aag1087
aa(lp1187
(lp1188
(I1053
I243
g46
tp1189
aag1087
aa(lp1190
(lp1191
(I1143
I198
g175
tp1192
aag1087
aa(lp1193
(lp1194
(I1071
I126
g108
tp1195
aag1087
aa(lp1196
(lp1197
(I1071
I81
g54
tp1198
aag1087
aa(lp1199
(lp1200
(I1143
I252
g54
tp1201
aag1087
aa(lp1202
(lp1203
(I1035
I261
g27
tp1204
aag1087
aa(lp1205
(lp1206
(I1053
I90
g19
tp1207
aag1087
aa(lp1208
(lp1209
(I1071
I180
g175
tp1210
aag1087
aa(lp1211
(lp1212
(I1089
I216
g175
tp1213
aag1087
aa(lp1214
(lp1215
(I1125
I243
g27
tp1216
aag1087
aa(lp1217
(lp1218
(I1089
I108
g46
tp1219
aag1087
aa(lp1220
(lp1221
(I1107
I207
g8
tp1222
aag1087
aa(lp1223
(lp1224
(I1071
I270
g31
tp1225
aag1087
aa(lp1226
(lp1227
(I1089
I198
g132
tp1228
aag1087
aa(lp1229
(lp1230
(I1071
I144
g132
tp1231
aag1087
aa(lp1232
(lp1233
(I1107
I126
g146
tp1234
aag1087
aa.