(lp0
(lp1
(I81
I225
S'o'
p2
tp3
aa(lp4
(I135
I234
S'v'
p5
tp6
aa(lp7
(I63
I243
S't'
p8
tp9
aa(lp10
(I27
I117
S'r'
p11
tp12
aa(lp13
(I99
I270
g2
tp14
aa(lp15
(I45
I216
S'c'
p16
tp17
aa(lp18
(I81
I216
S'n'
p19
tp20
aa(lp21
(I117
I234
g8
tp22
aa(lp23
(I81
I234
S'u'
p24
tp25
aa(lp26
(I81
I171
S'd'
p27
tp28
aa(lp29
(I99
I180
S'a'
p30
tp31
aa(lp32
(I99
I189
S'j'
p33
tp34
aa(lp35
(I99
I90
g27
tp36
aa(lp37
(I81
I252
g11
tp38
aa(lp39
(I27
I63
g5
tp40
aa(lp41
(I135
I135
g33
tp42
aa(lp43
(I45
I261
S'l'
p44
tp45
aa(lp46
(I81
I207
S'z'
p47
tp48
aa(lp49
(I117
I198
S'g'
p50
tp51
aa(lp52
(I63
I135
S'k'
p53
tp54
aa(lp55
(I63
I180
S'q'
p56
tp57
aa(lp58
(I117
I108
S'p'
p59
tp60
aa(lp61
(I117
I180
g53
tp62
aa(lp63
(I117
I261
g2
tp64
aa(lp65
(I63
I90
S'x'
p66
tp67
aa(lp68
(I63
I171
S'h'
p69
tp70
aa(lp71
(I99
I225
g47
tp72
aa(lp73
(I63
I81
g5
tp74
aa(lp75
(I81
I180
g47
tp76
aa(lp77
(I27
I153
S'i'
p78
tp79
aa(lp80
(I117
I261
S'y'
p81
tp82
aa(lp83
(I27
I261
g2
tp84
aa(lp85
(I81
I216
g24
tp86
aa(lp87
(I63
I153
S'm'
p88
tp89
aa(lp90
(I99
I63
g88
tp91
aa(lp92
(I117
I63
g50
tp93
aa(lp94
(I81
I225
g78
tp95
aa(lp96
(I99
I252
S'f'
p97
tp98
aa(lp99
(I135
I135
g97
tp100
aa(lp101
(I45
I81
g44
tp102
aa(lp103
(I81
I180
g56
tp104
aa(lp105
(I81
I216
g56
tp106
aa(lp107
(I81
I99
g69
tp108
aa(lp109
(I63
I99
g47
tp110
aa(lp111
(I27
I144
S's'
p112
tp113
aa(lp114
(I117
I108
S'b'
p115
tp116
aa(lp117
(I27
I243
g44
tp118
aa(lp119
(I99
I180
g5
tp120
aa(lp121
(I99
I162
g81
tp122
aa(lp123
(I99
I180
g59
tp124
aa(lp125
(I45
I198
g78
tp126
aa(lp127
(I63
I252
g115
tp128
aa(lp129
(I81
I63
g5
tp130
aa(lp131
(I27
I135
g59
tp132
aa(lp133
(I99
I207
g44
tp134
aa(lp135
(I117
I72
g78
tp136
aa(lp137
(I99
I63
g24
tp138
aa(lp139
(I45
I252
g8
tp140
aa(lp141
(I135
I261
g88
tp142
aa(lp143
(I81
I270
g11
tp144
aa(lp145
(I45
I108
g27
tp146
aa(lp147
(I135
I252
g69
tp148
aa(lp149
(I63
I153
S'w'
p150
tp151
aa(lp152
(I45
I216
g33
tp153
aa(lp154
(I117
I99
g115
tp155
aa(lp156
(I45
I171
g11
tp157
aa(lp158
(I117
I180
g30
tp159
aa(lp160
(I63
I81
g27
tp161
aa(lp162
(I99
I225
g30
tp163
aa(lp164
(I27
I81
g112
tp165
aa(lp166
(I81
I234
g56
tp167
aa(lp168
(I135
I162
g19
tp169
aa(lp170
(I27
I198
g16
tp171
aa(lp172
(I117
I162
g112
tp173
aa(lp174
(I135
I189
g78
tp175
aa(lp176
(I81
I99
g44
tp177
aa(lp178
(I27
I234
g50
tp179
aa(lp180
(I99
I252
g81
tp181
aa(lp182
(I63
I72
g44
tp183
aa(lp184
(I63
I243
g30
tp185
aa(lp186
(I99
I108
g33
tp187
aa(lp188
(I135
I171
g11
tp189
aa(lp190
(I99
I189
g53
tp191
aa(lp192
(I27
I243
g2
tp193
aa(lp194
(I99
I180
g56
tp195
aa(lp196
(I117
I234
g19
tp197
aa(lp198
(I135
I207
g24
tp199
aa(lp200
(I135
I189
g81
tp201
aa(lp202
(I45
I225
g33
tp203
aa(lp204
(I81
I198
g11
tp205
aa(lp206
(I117
I117
g33
tp207
aa(lp208
(I27
I144
g115
tp209
aa(lp210
(I81
I225
g27
tp211
aa(lp212
(I63
I72
g53
tp213
aa(lp214
(I63
I207
g19
tp215
aa(lp216
(I117
I108
g66
tp217
aa(lp218
(I135
I198
g44
tp219
aa(lp220
(I45
I63
g81
tp221
aa(lp222
(I45
I198
g56
tp223
aa(lp224
(I117
I261
g33
tp225
aa(lp226
(I45
I72
g59
tp227
aa(lp228
(I45
I180
g33
tp229
aa(lp230
(I63
I117
g78
tp231
aa(lp232
(I99
I72
g16
tp233
aa(lp234
(I45
I270
g88
tp235
aa(lp236
(I27
I117
g44
tp237
aa(lp238
(I117
I153
g33
tp239
aa(lp240
(I63
I234
g78
tp241
aa(lp242
(I135
I81
g88
tp243
aa(lp244
(I63
I63
g56
tp245
aa(lp246
(I117
I234
g30
tp247
aa(lp248
(I63
I189
g11
tp249
aa(lp250
(I117
I189
g81
tp251
aa(lp252
(I117
I252
g53
tp253
aa(lp254
(I63
I81
g19
tp255
aa(lp256
(I117
I180
g44
tp257
aa(lp258
(I81
I72
g8
tp259
aa(lp260
(I135
I90
g5
tp261
aa(lp262
(I27
I90
g8
tp263
aa(lp264
(I63
I81
g88
tp265
aa(lp266
(I117
I189
g5
tp267
aa(lp268
(I63
I81
g19
tp269
aa(lp270
(I135
I225
g81
tp271
aa(lp272
(I135
I270
g16
tp273
aa(lp274
(I45
I135
g78
tp275
aa(lp276
(I27
I135
g33
tp277
aa(lp278
(I27
I72
g24
tp279
aa(lp280
(I135
I108
g53
tp281
aa(lp282
(I81
I144
g2
tp283
aa(lp284
(I63
I171
g8
tp285
aa(lp286
(I63
I153
g53
tp287
aa(lp288
(I81
I207
g81
tp289
aa(lp290
(I45
I243
g50
tp291
aa(lp292
(I27
I153
g16
tp293
aa(lp294
(I27
I144
g11
tp295
aa(lp296
(I63
I126
g33
tp297
aa(lp298
(I135
I252
g53
tp299
aa(lp300
(I81
I162
g24
tp301
aa(lp302
(I81
I216
g59
tp303
aa(lp304
(I117
I135
g33
tp305
aa(lp306
(I135
I72
g88
tp307
aa(lp308
(I27
I126
g112
tp309
aa(lp310
(I99
I81
g27
tp311
aa(lp312
(I81
I153
g11
tp313
aa(lp314
(I27
I126
g88
tp315
aa(lp316
(I45
I99
g50
tp317
aa(lp318
(I99
I198
g19
tp319
aa(lp320
(I45
I207
g8
tp321
aa(lp322
(I63
I153
g88
tp323
aa(lp324
(I27
I216
g97
tp325
aa(lp326
(I135
I180
S'e'
p327
tp328
aa(lp329
(I45
I72
g11
tp330
aa(lp331
(I81
I180
g2
tp332
aa(lp333
(I45
I189
g327
tp334
aa(lp335
(I117
I135
g16
tp336
aa(lp337
(I45
I252
g33
tp338
aa(lp339
(I117
I81
g44
tp340
aa(lp341
(I27
I99
g59
tp342
aa(lp343
(I45
I243
g53
tp344
aa(lp345
(I99
I261
g2
tp346
aa(lp347
(I135
I126
g112
tp348
aa(lp349
(I135
I225
g69
tp350
aa(lp351
(I99
I72
g33
tp352
aa(lp353
(I81
I153
g47
tp354
aa(lp355
(I99
I261
g2
tp356
aa(lp357
(I63
I234
g327
tp358
aa(lp359
(I81
I144
g16
tp360
aa(lp361
(I27
I162
g88
tp362
aa(lp363
(I63
I99
g112
tp364
aa(lp365
(I27
I126
g88
tp366
aa(lp367
(I63
I63
g115
tp368
aa(lp369
(I45
I270
g56
tp370
aa(lp371
(I117
I225
g27
tp372
aa(lp373
(I63
I198
g112
tp374
aa(lp375
(I63
I270
g2
tp376
aa(lp377
(I27
I162
g115
tp378
aa(lp379
(I81
I117
g44
tp380
aa(lp381
(I135
I225
g81
tp382
aa(lp383
(I45
I225
g150
tp384
aa(lp385
(I63
I135
g56
tp386
aa(lp387
(I99
I126
g16
tp388
aa(lp389
(I99
I225
g97
tp390
aa(lp391
(I45
I99
g8
tp392
aa(lp393
(I45
I135
g66
tp394
aa(lp395
(I99
I207
g24
tp396
aa(lp397
(I45
I63
g47
tp398
aa(lp399
(I135
I270
g44
tp400
aa(lp401
(I27
I90
g16
tp402
aa(lp403
(I81
I81
g81
tp404
aa(lp405
(I45
I135
g44
tp406
aa(lp407
(I45
I234
g11
tp408
aa(lp409
(I63
I153
g11
tp410
aa(lp411
(I99
I234
g150
tp412
aa(lp413
(I99
I234
g5
tp414
aa(lp415
(I117
I180
g8
tp416
aa(lp417
(I99
I198
g30
tp418
aa(lp419
(I45
I117
g30
tp420
aa(lp421
(I99
I198
g66
tp422
aa(lp423
(I99
I198
g56
tp424
aa(lp425
(I45
I270
g81
tp426
aa(lp427
(I279
I189
g327
tp428
aa(lp429
(I243
I99
g27
tp430
aa(lp431
(I171
I72
g115
tp432
aa(lp433
(I225
I90
g59
tp434
aa(lp435
(I171
I198
g59
tp436
aa(lp437
(I207
I90
g47
tp438
aa(lp439
(I225
I270
g88
tp440
aa(lp441
(I207
I171
g53
tp442
aa(lp443
(I225
I207
g81
tp444
aa(lp445
(I171
I270
g19
tp446
aa(lp447
(I279
I117
g59
tp448
aa(lp449
(I243
I225
g19
tp450
aa(lp451
(I171
I189
g50
tp452
aa(lp453
(I207
I81
g30
tp454
aa(lp455
(I261
I207
g88
tp456
aa(lp457
(I261
I270
g112
tp458
aa(lp459
(I279
I135
g115
tp460
aa(lp461
(I171
I144
g327
tp462
aa(lp463
(I225
I90
g150
tp464
aa(lp465
(I261
I81
g8
tp466
aa(lp467
(I243
I90
g11
tp468
aa(lp469
(I207
I261
g5
tp470
aa(lp471
(I171
I108
g24
tp472
aa(lp473
(I207
I189
g8
tp474
aa(lp475
(I207
I108
g16
tp476
aa(lp477
(I207
I225
g5
tp478
aa(lp479
(I207
I153
g69
tp480
aa(lp481
(I243
I144
g30
tp482
aa(lp483
(I207
I216
g81
tp484
aa(lp485
(I189
I99
g78
tp486
aa(lp487
(I207
I243
g50
tp488
aa(lp489
(I261
I126
g8
tp490
aa(lp491
(I207
I243
g30
tp492
aa(lp493
(I171
I189
g30
tp494
aa(lp495
(I279
I144
g33
tp496
aa(lp497
(I171
I243
g69
tp498
aa(lp499
(I189
I162
g11
tp500
aa(lp501
(I279
I162
g115
tp502
aa(lp503
(I207
I189
g2
tp504
aa(lp505
(I189
I153
g50
tp506
aa(lp507
(I225
I216
g5
tp508
aa(lp509
(I261
I153
g69
tp510
aa(lp511
(I189
I90
g44
tp512
aa(lp513
(I279
I153
g115
tp514
aa(lp515
(I261
I126
g69
tp516
aa(lp517
(I243
I117
g16
tp518
aa(lp519
(I279
I153
g27
tp520
aa(lp521
(I189
I162
g50
tp522
aa(lp523
(I189
I72
g115
tp524
aa(lp525
(I243
I180
g11
tp526
aa(lp527
(I189
I207
g78
tp528
aa(lp529
(I243
I144
g97
tp530
aa(lp531
(I243
I171
g44
tp532
aa(lp533
(I225
I162
g19
tp534
aa(lp535
(I243
I216
g88
tp536
aa(lp537
(I207
I72
g47
tp538
aa(lp539
(I243
I135
g81
tp540
aa(lp541
(I279
I207
g115
tp542
aa(lp543
(I225
I234
g56
tp544
aa(lp545
(I207
I72
g69
tp546
aa(lp547
(I189
I162
g33
tp548
aa(lp549
(I279
I117
g78
tp550
aa(lp551
(I189
I234
g30
tp552
aa(lp553
(I225
I162
g150
tp554
aa(lp555
(I189
I207
g44
tp556
aa(lp557
(I189
I135
g97
tp558
aa(lp559
(I225
I162
g19
tp560
aa(lp561
(I225
I72
g53
tp562
aa(lp563
(I189
I198
g11
tp564
aa(lp565
(I171
I108
g5
tp566
aa(lp567
(I189
I153
g2
tp568
aa(lp569
(I261
I252
g97
tp570
aa(lp571
(I225
I99
g5
tp572
aa(lp573
(I279
I108
g69
tp574
aa(lp575
(I261
I117
g27
tp576
aa(lp577
(I279
I72
g115
tp578
aa(lp579
(I207
I135
g56
tp580
aa(lp581
(I279
I234
g2
tp582
aa(lp583
(I279
I162
g59
tp584
aa(lp585
(I225
I72
g16
tp586
aa(lp587
(I189
I252
g66
tp588
aa(lp589
(I225
I162
g66
tp590
aa(lp591
(I225
I126
g16
tp592
aa(lp593
(I189
I153
g150
tp594
aa(lp595
(I225
I198
g115
tp596
aa(lp597
(I207
I108
g78
tp598
aa(lp599
(I261
I162
g327
tp600
aa(lp601
(I189
I207
g11
tp602
aa(lp603
(I207
I117
g56
tp604
aa(lp605
(I207
I225
g115
tp606
aa(lp607
(I279
I243
g19
tp608
aa(lp609
(I189
I90
g33
tp610
aa(lp611
(I189
I234
g11
tp612
aa(lp613
(I189
I135
g33
tp614
aa(lp615
(I261
I144
g50
tp616
aa(lp617
(I171
I234
g27
tp618
aa(lp619
(I225
I207
g5
tp620
aa(lp621
(I225
I243
g56
tp622
aa(lp623
(I225
I108
g11
tp624
aa(lp625
(I261
I135
g88
tp626
aa(lp627
(I261
I81
g81
tp628
aa(lp629
(I279
I180
g327
tp630
aa(lp631
(I171
I90
g59
tp632
aa(lp633
(I243
I270
g11
tp634
aa(lp635
(I189
I243
g16
tp636
aa(lp637
(I171
I243
g327
tp638
aa(lp639
(I189
I72
g5
tp640
aa(lp641
(I261
I243
g16
tp642
aa(lp643
(I207
I153
g50
tp644
aa(lp645
(I225
I198
g27
tp646
aa(lp647
(I225
I153
g53
tp648
aa(lp649
(I189
I90
g78
tp650
aa(lp651
(I243
I162
g53
tp652
aa(lp653
(I279
I99
g97
tp654
aa(lp655
(I279
I153
g56
tp656
aa(lp657
(I171
I135
g16
tp658
aa(lp659
(I207
I270
g19
tp660
aa(lp661
(I207
I81
g66
tp662
aa(lp663
(I225
I81
g69
tp664
aa(lp665
(I171
I252
g16
tp666
aa(lp667
(I243
I270
g44
tp668
aa(lp669
(I279
I144
g16
tp670
aa(lp671
(I207
I144
g5
tp672
aa(lp673
(I261
I81
g59
tp674
aa(lp675
(I225
I126
g81
tp676
aa(lp677
(I225
I171
g69
tp678
aa(lp679
(I171
I180
g5
tp680
aa(lp681
(I189
I72
g47
tp682
aa(lp683
(I171
I243
g150
tp684
aa(lp685
(I261
I180
g16
tp686
aa(lp687
(I171
I72
g69
tp688
aa(lp689
(I171
I180
g27
tp690
aa(lp691
(I171
I117
g50
tp692
aa(lp693
(I171
I270
g11
tp694
aa(lp695
(I261
I261
g56
tp696
aa(lp697
(I189
I144
g88
tp698
aa(lp699
(I171
I72
g50
tp700
aa(lp701
(I225
I162
g59
tp702
aa(lp703
(I225
I171
g24
tp704
aa(lp705
(I261
I81
g5
tp706
aa(lp707
(I189
I171
g11
tp708
aa(lp709
(I189
I108
g44
tp710
aa(lp711
(I261
I72
g47
tp712
aa(lp713
(I225
I207
g327
tp714
aa(lp715
(I261
I198
g327
tp716
aa(lp717
(I189
I171
g115
tp718
aa(lp719
(I189
I270
g88
tp720
aa(lp721
(I279
I243
g5
tp722
aa(lp723
(I207
I99
g27
tp724
aa(lp725
(I261
I144
g53
tp726
aa(lp727
(I243
I135
g69
tp728
aa(lp729
(I243
I144
g69
tp730
aa(lp731
(I225
I189
g8
tp732
aa(lp733
(I171
I270
g44
tp734
aa(lp735
(I171
I117
g33
tp736
aa(lp737
(I171
I126
g78
tp738
aa(lp739
(I171
I243
g16
tp740
aa(lp741
(I261
I261
g11
tp742
aa(lp743
(I225
I81
g47
tp744
aa(lp745
(I225
I126
g30
tp746
aa(lp747
(I261
I270
g81
tp748
aa(lp749
(I207
I243
g27
tp750
aa(lp751
(I171
I72
g16
tp752
aa(lp753
(I207
I252
g16
tp754
aa(lp755
(I243
I126
g2
tp756
aa(lp757
(I225
I234
g16
tp758
aa(lp759
(I261
I225
g66
tp760
aa(lp761
(I171
I135
g30
tp762
aa(lp763
(I225
I108
g16
tp764
aa(lp765
(I171
I171
g47
tp766
aa(lp767
(I279
I81
g2
tp768
aa(lp769
(I225
I216
g69
tp770
aa(lp771
(I207
I126
g53
tp772
aa(lp773
(I207
I108
g78
tp774
aa(lp775
(I171
I225
g69
tp776
aa(lp777
(I207
I99
g69
tp778
aa(lp779
(I243
I261
g8
tp780
aa(lp781
(I243
I162
g66
tp782
aa(lp783
(I225
I144
g59
tp784
aa(lp785
(I189
I234
g5
tp786
aa(lp787
(I243
I225
g50
tp788
aa(lp789
(I279
I153
g30
tp790
aa(lp791
(I207
I198
g59
tp792
aa(lp793
(I189
I234
g66
tp794
aa(lp795
(I207
I162
g50
tp796
aa(lp797
(I189
I171
g56
tp798
aa(lp799
(I225
I108
g33
tp800
aa(lp801
(I243
I189
g47
tp802
aa(lp803
(I189
I162
g81
tp804
aa(lp805
(I261
I243
g50
tp806
aa(lp807
(I207
I261
g11
tp808
aa(lp809
(I171
I108
g33
tp810
aa(lp811
(I261
I135
g88
tp812
aa(lp813
(I207
I270
g53
tp814
aa(lp815
(I243
I225
g327
tp816
aa(lp817
(I189
I225
g59
tp818
aa(lp819
(I171
I126
g53
tp820
aa(lp821
(I171
I117
g33
tp822
aa(lp823
(I189
I99
g53
tp824
aa(lp825
(I225
I189
g5
tp826
aa(lp827
(I333
I189
g24
tp828
aa(lp829
(I369
I81
g66
tp830
aa(lp831
(I315
I189
g56
tp832
aa(lp833
(I405
I252
g59
tp834
aa(lp835
(I333
I207
g33
tp836
aa(lp837
(I387
I117
g50
tp838
aa(lp839
(I387
I117
g97
tp840
aa(lp841
(I405
I99
g56
tp842
aa(lp843
(I387
I243
g19
tp844
aa(lp845
(I369
I261
g115
tp846
aa(lp847
(I333
I135
g30
tp848
aa(lp849
(I351
I234
g16
tp850
aa(lp851
(I369
I243
g69
tp852
aa(lp853
(I423
I108
g44
tp854
aa(lp855
(I315
I243
g2
tp856
aa(lp857
(I423
I252
g11
tp858
aa(lp859
(I387
I243
g88
tp860
aa(lp861
(I333
I108
g30
tp862
aa(lp863
(I405
I225
g59
tp864
aa(lp865
(I315
I252
g81
tp866
aa(lp867
(I387
I126
g88
tp868
aa(lp869
(I423
I135
g27
tp870
aa(lp871
(I315
I72
g66
tp872
aa(lp873
(I351
I261
g50
tp874
aa(lp875
(I315
I90
g33
tp876
aa(lp877
(I423
I171
g150
tp878
aa(lp879
(I423
I171
g97
tp880
aa(lp881
(I333
I234
g56
tp882
aa(lp883
(I351
I207
g66
tp884
aa(lp885
(I423
I180
g44
tp886
aa(lp887
(I351
I216
g88
tp888
aa(lp889
(I315
I135
g66
tp890
aa(lp891
(I405
I126
g88
tp892
aa(lp893
(I405
I189
g69
tp894
aa(lp895
(I405
I81
g24
tp896
aa(lp897
(I423
I270
g19
tp898
aa(lp899
(I369
I198
g66
tp900
aa(lp901
(I333
I234
g16
tp902
aa(lp903
(I423
I234
g115
tp904
aa(lp905
(I369
I198
g53
tp906
aa(lp907
(I369
I171
g50
tp908
aa(lp909
(I315
I198
g44
tp910
aa(lp911
(I351
I243
g112
tp912
aa(lp913
(I315
I270
g47
tp914
aa(lp915
(I387
I72
g115
tp916
aa(lp917
(I351
I207
g11
tp918
aa(lp919
(I405
I153
g2
tp920
aa(lp921
(I351
I162
g112
tp922
aa(lp923
(I387
I261
g112
tp924
aa(lp925
(I351
I189
g88
tp926
aa(lp927
(I351
I189
g88
tp928
aa(lp929
(I351
I270
g47
tp930
aa(lp931
(I423
I126
g50
tp932
aa(lp933
(I405
I171
g24
tp934
aa(lp935
(I423
I99
g16
tp936
aa(lp937
(I315
I126
g19
tp938
aa(lp939
(I387
I117
g150
tp940
aa(lp941
(I387
I99
g59
tp942
aa(lp943
(I315
I81
g5
tp944
aa(lp945
(I315
I207
g150
tp946
aa(lp947
(I387
I153
g66
tp948
aa(lp949
(I369
I162
g69
tp950
aa(lp951
(I369
I198
g81
tp952
aa(lp953
(I351
I180
g50
tp954
aa(lp955
(I369
I225
g112
tp956
aa(lp957
(I423
I117
g47
tp958
aa(lp959
(I351
I261
g27
tp960
aa(lp961
(I351
I198
g69
tp962
aa(lp963
(I405
I198
g2
tp964
aa(lp965
(I387
I216
g19
tp966
aa(lp967
(I369
I198
g56
tp968
aa(lp969
(I333
I207
g112
tp970
aa(lp971
(I333
I108
g88
tp972
aa(lp973
(I351
I207
g327
tp974
aa(lp975
(I423
I144
g27
tp976
aa(lp977
(I333
I162
g33
tp978
aa(lp979
(I405
I189
g2
tp980
aa(lp981
(I351
I189
g53
tp982
aa(lp983
(I333
I108
g327
tp984
aa(lp985
(I315
I81
g5
tp986
aa(lp987
(I369
I189
g19
tp988
aa(lp989
(I315
I144
g59
tp990
aa(lp991
(I333
I117
g81
tp992
aa(lp993
(I423
I81
g56
tp994
aa(lp995
(I315
I153
g327
tp996
aa(lp997
(I351
I135
g8
tp998
aa(lp999
(I369
I261
g78
tp1000
aa(lp1001
(I369
I252
g27
tp1002
aa(lp1003
(I387
I234
g19
tp1004
aa(lp1005
(I405
I90
g69
tp1006
aa(lp1007
(I369
I216
g78
tp1008
aa(lp1009
(I333
I261
g2
tp1010
aa(lp1011
(I315
I108
g115
tp1012
aa(lp1013
(I405
I180
g150
tp1014
aa(lp1015
(I333
I252
g59
tp1016
aa(lp1017
(I351
I135
g8
tp1018
aa(lp1019
(I387
I171
g8
tp1020
aa(lp1021
(I423
I153
g112
tp1022
aa(lp1023
(I351
I81
g112
tp1024
aa(lp1025
(I423
I153
g5
tp1026
aa(lp1027
(I351
I225
g112
tp1028
aa(lp1029
(I423
I198
g59
tp1030
aa(lp1031
(I387
I225
g8
tp1032
aa(lp1033
(I405
I261
g88
tp1034
aa(lp1035
(I333
I189
g97
tp1036
aa(lp1037
(I369
I198
g44
tp1038
aa(lp1039
(I333
I207
g78
tp1040
aa(lp1041
(I369
I261
g30
tp1042
aa(lp1043
(I351
I243
g11
tp1044
aa(lp1045
(I423
I162
g59
tp1046
aa(lp1047
(I333
I162
g97
tp1048
aa(lp1049
(I405
I126
g88
tp1050
aa(lp1051
(I387
I72
g50
tp1052
aa(lp1053
(I333
I108
g5
tp1054
aa(lp1055
(I333
I99
g33
tp1056
aa(lp1057
(I387
I81
g19
tp1058
aa(lp1059
(I369
I144
g78
tp1060
aa(lp1061
(I423
I171
g97
tp1062
aa(lp1063
(I405
I90
g44
tp1064
aa(lp1065
(I387
I180
g53
tp1066
aa(lp1067
(I405
I126
g88
tp1068
aa(lp1069
(I387
I261
g2
tp1070
aa(lp1071
(I351
I117
g5
tp1072
aa(lp1073
(I315
I144
g88
tp1074
aa(lp1075
(I369
I162
g81
tp1076
aa(lp1077
(I351
I234
g2
tp1078
aa(lp1079
(I315
I135
g44
tp1080
aa(lp1081
(I387
I162
g11
tp1082
aa(lp1083
(I369
I234
g5
tp1084
aa(lp1085
(I333
I225
g24
tp1086
aa(lp1087
(I387
I180
g115
tp1088
aa(lp1089
(I351
I180
g59
tp1090
aa(lp1091
(I333
I90
g24
tp1092
aa(lp1093
(I405
I90
g150
tp1094
aa(lp1095
(I369
I126
g5
tp1096
aa(lp1097
(I387
I189
g69
tp1098
aa(lp1099
(I405
I99
g33
tp1100
aa(lp1101
(I369
I225
g97
tp1102
aa(lp1103
(I423
I270
g88
tp1104
aa(lp1105
(I387
I126
g47
tp1106
aa(lp1107
(I369
I126
g88
tp1108
aa(lp1109
(I351
I225
g78
tp1110
aa(lp1111
(I351
I72
g8
tp1112
aa(lp1113
(I387
I261
g112
tp1114
aa(lp1115
(I333
I189
g59
tp1116
aa(lp1117
(I333
I252
g56
tp1118
aa(lp1119
(I369
I207
g115
tp1120
aa(lp1121
(I423
I225
g150
tp1122
aa(lp1123
(I387
I117
g66
tp1124
aa(lp1125
(I333
I135
g24
tp1126
aa(lp1127
(I387
I81
g27
tp1128
aa(lp1129
(I351
I234
g44
tp1130
aa(lp1131
(I351
I207
g11
tp1132
aa(lp1133
(I369
I126
g5
tp1134
aa(lp1135
(I369
I270
g112
tp1136
aa(lp1137
(I405
I261
g19
tp1138
aa(lp1139
(I369
I189
g8
tp1140
aa(lp1141
(I369
I207
g56
tp1142
aa(lp1143
(I315
I135
g69
tp1144
aa(lp1145
(I351
I108
g66
tp1146
aa(lp1147
(I405
I99
g33
tp1148
aa(lp1149
(I333
I180
g112
tp1150
aa(lp1151
(I387
I252
g53
tp1152
aa(lp1153
(I351
I180
g56
tp1154
aa(lp1155
(I351
I189
g81
tp1156
aa(lp1157
(I369
I189
g88
tp1158
aa(lp1159
(I387
I207
g16
tp1160
aa(lp1161
(I387
I261
g53
tp1162
aa(lp1163
(I369
I252
g8
tp1164
aa(lp1165
(I333
I225
g115
tp1166
aa(lp1167
(I351
I207
g19
tp1168
aa(lp1169
(I351
I252
g327
tp1170
aa(lp1171
(I369
I72
g66
tp1172
aa(lp1173
(I387
I117
g81
tp1174
aa(lp1175
(I369
I207
g327
tp1176
aa(lp1177
(I333
I234
g47
tp1178
aa(lp1179
(I369
I126
g33
tp1180
aa(lp1181
(I405
I198
g47
tp1182
aa(lp1183
(I315
I90
g30
tp1184
aa(lp1185
(I423
I81
g88
tp1186
aa(lp1187
(I369
I153
g8
tp1188
aa(lp1189
(I405
I180
g53
tp1190
aa(lp1191
(I315
I153
g327
tp1192
aa(lp1193
(I387
I81
g66
tp1194
aa(lp1195
(I369
I108
g97
tp1196
aa(lp1197
(I387
I99
g59
tp1198
aa(lp1199
(I333
I261
g59
tp1200
aa(lp1201
(I423
I72
g2
tp1202
aa(lp1203
(I387
I216
g5
tp1204
aa(lp1205
(I315
I234
g19
tp1206
aa(lp1207
(I315
I126
g33
tp1208
aa(lp1209
(I369
I135
g150
tp1210
aa(lp1211
(I423
I135
g11
tp1212
aa(lp1213
(I351
I126
g30
tp1214
aa(lp1215
(I351
I189
g24
tp1216
aa(lp1217
(I405
I261
g44
tp1218
aa(lp1219
(I315
I72
g30
tp1220
aa(lp1221
(I387
I234
g150
tp1222
aa(lp1223
(I423
I243
g16
tp1224
aa(lp1225
(I333
I261
g53
tp1226
aa(lp1227
(I459
I144
g78
tp1228
aa(lp1229
(I531
I117
g69
tp1230
aa(lp1231
(I513
I126
g5
tp1232
aa(lp1233
(I477
I270
g19
tp1234
aa(lp1235
(I567
I72
g59
tp1236
aa(lp1237
(I459
I162
g88
tp1238
aa(lp1239
(I513
I81
g24
tp1240
aa(lp1241
(I513
I234
g30
tp1242
aa(lp1243
(I459
I234
g47
tp1244
aa(lp1245
(I495
I225
g2
tp1246
aa(lp1247
(I549
I81
g5
tp1248
aa(lp1249
(I513
I261
g88
tp1250
aa(lp1251
(I567
I243
g327
tp1252
aa(lp1253
(I477
I216
g66
tp1254
aa(lp1255
(I477
I198
g44
tp1256
aa(lp1257
(I549
I234
g115
tp1258
aa(lp1259
(I495
I72
g69
tp1260
aa(lp1261
(I459
I171
g69
tp1262
aa(lp1263
(I477
I189
g27
tp1264
aa(lp1265
(I531
I189
g115
tp1266
aa(lp1267
(I567
I108
g8
tp1268
aa(lp1269
(I567
I243
g19
tp1270
aa(lp1271
(I477
I126
g30
tp1272
aa(lp1273
(I513
I144
g5
tp1274
aa(lp1275
(I513
I135
g24
tp1276
aa(lp1277
(I495
I270
g24
tp1278
aa(lp1279
(I549
I162
g19
tp1280
aa(lp1281
(I477
I189
g19
tp1282
aa(lp1283
(I531
I216
g24
tp1284
aa(lp1285
(I549
I180
g97
tp1286
aa(lp1287
(I531
I198
g47
tp1288
aa(lp1289
(I459
I198
g88
tp1290
aa(lp1291
(I495
I153
g27
tp1292
aa(lp1293
(I495
I261
g11
tp1294
aa(lp1295
(I567
I243
g69
tp1296
aa(lp1297
(I531
I153
g97
tp1298
aa(lp1299
(I531
I243
g56
tp1300
aa(lp1301
(I495
I225
g2
tp1302
aa(lp1303
(I459
I162
g19
tp1304
aa(lp1305
(I495
I81
g19
tp1306
aa(lp1307
(I513
I234
g30
tp1308
aa(lp1309
(I495
I144
g97
tp1310
aa(lp1311
(I477
I225
g30
tp1312
aa(lp1313
(I549
I189
g24
tp1314
aa(lp1315
(I513
I99
g112
tp1316
aa(lp1317
(I495
I99
g24
tp1318
aa(lp1319
(I567
I252
g97
tp1320
aa(lp1321
(I495
I270
g150
tp1322
aa(lp1323
(I549
I90
g5
tp1324
aa(lp1325
(I567
I261
g59
tp1326
aa(lp1327
(I549
I234
g19
tp1328
aa(lp1329
(I495
I207
g19
tp1330
aa(lp1331
(I495
I108
g44
tp1332
aa(lp1333
(I459
I216
g24
tp1334
aa(lp1335
(I495
I261
g44
tp1336
aa(lp1337
(I567
I90
g112
tp1338
aa(lp1339
(I459
I72
g327
tp1340
aa(lp1341
(I531
I153
g88
tp1342
aa(lp1343
(I477
I108
g5
tp1344
aa(lp1345
(I513
I117
g88
tp1346
aa(lp1347
(I495
I252
g81
tp1348
aa(lp1349
(I549
I243
g88
tp1350
aa(lp1351
(I549
I81
g327
tp1352
aa(lp1353
(I531
I117
g27
tp1354
aa(lp1355
(I531
I171
g115
tp1356
aa(lp1357
(I495
I126
g78
tp1358
aa(lp1359
(I549
I153
g24
tp1360
aa(lp1361
(I549
I207
g53
tp1362
aa(lp1363
(I459
I72
g19
tp1364
aa(lp1365
(I495
I252
g47
tp1366
aa(lp1367
(I459
I162
g2
tp1368
aa(lp1369
(I477
I207
g150
tp1370
aa(lp1371
(I477
I180
g53
tp1372
aa(lp1373
(I549
I108
g27
tp1374
aa(lp1375
(I477
I135
g97
tp1376
aa(lp1377
(I567
I207
g44
tp1378
aa(lp1379
(I513
I153
g150
tp1380
aa(lp1381
(I513
I243
g88
tp1382
aa(lp1383
(I477
I72
g16
tp1384
aa(lp1385
(I567
I234
g97
tp1386
aa(lp1387
(I459
I180
g8
tp1388
aa(lp1389
(I513
I171
g16
tp1390
aa(lp1391
(I495
I81
g150
tp1392
aa(lp1393
(I495
I216
g97
tp1394
aa(lp1395
(I549
I243
g59
tp1396
aa(lp1397
(I567
I108
g56
tp1398
aa(lp1399
(I531
I171
g97
tp1400
aa(lp1401
(I477
I81
g112
tp1402
aa(lp1403
(I549
I243
g50
tp1404
aa(lp1405
(I459
I198
g88
tp1406
aa(lp1407
(I495
I252
g44
tp1408
aa(lp1409
(I549
I243
g56
tp1410
aa(lp1411
(I477
I171
g112
tp1412
aa(lp1413
(I513
I234
g33
tp1414
aa(lp1415
(I459
I171
g115
tp1416
aa(lp1417
(I549
I270
g47
tp1418
aa(lp1419
(I495
I171
g69
tp1420
aa(lp1421
(I567
I234
g53
tp1422
aa(lp1423
(I567
I216
g11
tp1424
aa(lp1425
(I495
I216
g50
tp1426
aa(lp1427
(I567
I171
g16
tp1428
aa(lp1429
(I513
I144
g50
tp1430
aa(lp1431
(I549
I234
g112
tp1432
aa(lp1433
(I531
I162
g16
tp1434
aa(lp1435
(I513
I270
g97
tp1436
aa(lp1437
(I549
I153
g88
tp1438
aa(lp1439
(I495
I243
g112
tp1440
aa(lp1441
(I531
I207
g66
tp1442
aa(lp1443
(I567
I135
g56
tp1444
aa(lp1445
(I513
I135
g327
tp1446
aa(lp1447
(I459
I180
g27
tp1448
aa(lp1449
(I567
I189
g19
tp1450
aa(lp1451
(I549
I180
g50
tp1452
aa(lp1453
(I531
I270
g2
tp1454
aa(lp1455
(I531
I99
g16
tp1456
aa(lp1457
(I531
I153
g8
tp1458
aa(lp1459
(I531
I108
g59
tp1460
aa(lp1461
(I495
I189
g150
tp1462
aa(lp1463
(I495
I198
g150
tp1464
aa(lp1465
(I531
I99
g8
tp1466
aa(lp1467
(I459
I180
g81
tp1468
aa(lp1469
(I549
I162
g97
tp1470
aa(lp1471
(I531
I108
g97
tp1472
aa(lp1473
(I513
I90
g19
tp1474
aa(lp1475
(I513
I207
g78
tp1476
aa(lp1477
(I477
I252
g44
tp1478
aa(lp1479
(I549
I207
g69
tp1480
aa(lp1481
(I567
I243
g53
tp1482
aa(lp1483
(I531
I162
g33
tp1484
aa(lp1485
(I567
I207
g56
tp1486
aa(lp1487
(I459
I261
g2
tp1488
aa(lp1489
(I477
I270
g27
tp1490
aa(lp1491
(I477
I144
g56
tp1492
aa(lp1493
(I459
I243
g56
tp1494
aa(lp1495
(I513
I171
g47
tp1496
aa(lp1497
(I549
I261
g24
tp1498
aa(lp1499
(I477
I261
g59
tp1500
aa(lp1501
(I549
I234
g50
tp1502
aa(lp1503
(I495
I207
g59
tp1504
aa(lp1505
(I459
I153
g327
tp1506
aa(lp1507
(I477
I108
g150
tp1508
aa(lp1509
(I531
I81
g47
tp1510
aa(lp1511
(I459
I180
g81
tp1512
aa(lp1513
(I531
I108
g56
tp1514
aa(lp1515
(I549
I72
g24
tp1516
aa(lp1517
(I549
I243
g88
tp1518
aa(lp1519
(I531
I270
g78
tp1520
aa(lp1521
(I567
I261
g50
tp1522
aa(lp1523
(I477
I180
g81
tp1524
aa(lp1525
(I477
I270
g44
tp1526
aa(lp1527
(I513
I261
g88
tp1528
aa(lp1529
(I549
I81
g69
tp1530
aa(lp1531
(I567
I171
g47
tp1532
aa(lp1533
(I567
I162
g97
tp1534
aa(lp1535
(I477
I225
g78
tp1536
aa(lp1537
(I531
I270
g2
tp1538
aa(lp1539
(I459
I135
g78
tp1540
aa(lp1541
(I513
I180
g115
tp1542
aa(lp1543
(I513
I108
g11
tp1544
aa(lp1545
(I567
I225
g81
tp1546
aa(lp1547
(I477
I126
g66
tp1548
aa(lp1549
(I531
I81
g50
tp1550
aa(lp1551
(I495
I225
g8
tp1552
aa(lp1553
(I531
I117
g27
tp1554
aa(lp1555
(I531
I198
g47
tp1556
aa(lp1557
(I459
I261
g16
tp1558
aa(lp1559
(I495
I108
g88
tp1560
aa(lp1561
(I513
I72
g69
tp1562
aa(lp1563
(I477
I252
g88
tp1564
aa(lp1565
(I531
I216
g88
tp1566
aa(lp1567
(I549
I162
g33
tp1568
aa(lp1569
(I477
I117
g47
tp1570
aa(lp1571
(I513
I198
g5
tp1572
aa(lp1573
(I549
I162
g88
tp1574
aa(lp1575
(I459
I90
g59
tp1576
aa(lp1577
(I477
I216
g66
tp1578
aa(lp1579
(I459
I99
g47
tp1580
aa(lp1581
(I495
I126
g112
tp1582
aa(lp1583
(I495
I144
g97
tp1584
aa(lp1585
(I513
I162
g150
tp1586
aa(lp1587
(I531
I72
g327
tp1588
aa(lp1589
(I513
I207
g56
tp1590
aa(lp1591
(I567
I270
g53
tp1592
aa(lp1593
(I567
I117
g44
tp1594
aa(lp1595
(I549
I216
g8
tp1596
aa(lp1597
(I549
I225
g78
tp1598
aa(lp1599
(I567
I99
g16
tp1600
aa(lp1601
(I531
I72
g88
tp1602
aa(lp1603
(I549
I117
g16
tp1604
aa(lp1605
(I513
I180
g88
tp1606
aa(lp1607
(I459
I153
g11
tp1608
aa(lp1609
(I513
I198
g112
tp1610
aa(lp1611
(I513
I207
g56
tp1612
aa(lp1613
(I549
I162
g30
tp1614
aa(lp1615
(I495
I72
g2
tp1616
aa(lp1617
(I477
I144
g81
tp1618
aa(lp1619
(I495
I99
g81
tp1620
aa(lp1621
(I567
I171
g88
tp1622
aa(lp1623
(I495
I270
g2
tp1624
aa(lp1625
(I549
I198
g19
tp1626
aa(lp1627
(I603
I162
g112
tp1628
aa(lp1629
(I639
I117
g47
tp1630
aa(lp1631
(I675
I153
g27
tp1632
aa(lp1633
(I657
I171
g53
tp1634
aa(lp1635
(I693
I189
g81
tp1636
aa(lp1637
(I657
I261
g11
tp1638
aa(lp1639
(I621
I216
g33
tp1640
aa(lp1641
(I603
I162
g11
tp1642
aa(lp1643
(I639
I117
g53
tp1644
aa(lp1645
(I693
I99
g81
tp1646
aa(lp1647
(I657
I144
g47
tp1648
aa(lp1649
(I675
I180
g8
tp1650
aa(lp1651
(I639
I261
g16
tp1652
aa(lp1653
(I675
I225
g97
tp1654
aa(lp1655
(I711
I117
g11
tp1656
aa(lp1657
(I693
I225
g11
tp1658
aa(lp1659
(I603
I144
g8
tp1660
aa(lp1661
(I621
I162
g16
tp1662
aa(lp1663
(I639
I72
g44
tp1664
aa(lp1665
(I675
I189
g2
tp1666
aa(lp1667
(I639
I81
g69
tp1668
aa(lp1669
(I693
I126
g66
tp1670
aa(lp1671
(I675
I261
g50
tp1672
aa(lp1673
(I621
I243
g50
tp1674
aa(lp1675
(I693
I72
g33
tp1676
aa(lp1677
(I693
I81
g115
tp1678
aa(lp1679
(I639
I225
g30
tp1680
aa(lp1681
(I711
I162
g66
tp1682
aa(lp1683
(I639
I216
g5
tp1684
aa(lp1685
(I639
I189
g88
tp1686
aa(lp1687
(I675
I207
g81
tp1688
aa(lp1689
(I693
I189
g88
tp1690
aa(lp1691
(I711
I90
g2
tp1692
aa(lp1693
(I621
I135
g150
tp1694
aa(lp1695
(I711
I126
g150
tp1696
aa(lp1697
(I693
I108
g53
tp1698
aa(lp1699
(I657
I99
g69
tp1700
aa(lp1701
(I621
I225
g8
tp1702
aa(lp1703
(I711
I72
g78
tp1704
aa(lp1705
(I657
I261
g33
tp1706
aa(lp1707
(I621
I117
g112
tp1708
aa(lp1709
(I657
I270
g88
tp1710
aa(lp1711
(I639
I243
g50
tp1712
aa(lp1713
(I603
I162
g97
tp1714
aa(lp1715
(I603
I99
g59
tp1716
aa(lp1717
(I639
I225
g50
tp1718
aa(lp1719
(I621
I216
g16
tp1720
aa(lp1721
(I693
I144
g112
tp1722
aa(lp1723
(I639
I261
g327
tp1724
aa(lp1725
(I639
I90
g24
tp1726
aa(lp1727
(I693
I72
g19
tp1728
aa(lp1729
(I675
I234
g97
tp1730
aa(lp1731
(I693
I234
g150
tp1732
aa(lp1733
(I657
I207
g88
tp1734
aa(lp1735
(I603
I198
g16
tp1736
aa(lp1737
(I621
I81
g27
tp1738
aa(lp1739
(I657
I234
g88
tp1740
aa(lp1741
(I693
I261
g27
tp1742
aa(lp1743
(I621
I243
g19
tp1744
aa(lp1745
(I603
I72
g19
tp1746
aa(lp1747
(I639
I126
g33
tp1748
aa(lp1749
(I621
I162
g115
tp1750
aa(lp1751
(I675
I153
g53
tp1752
aa(lp1753
(I693
I153
g59
tp1754
aa(lp1755
(I711
I153
g88
tp1756
aa(lp1757
(I621
I225
g8
tp1758
aa(lp1759
(I675
I216
g56
tp1760
aa(lp1761
(I621
I90
g97
tp1762
aa(lp1763
(I603
I117
g44
tp1764
aa(lp1765
(I711
I216
g69
tp1766
aa(lp1767
(I621
I198
g53
tp1768
aa(lp1769
(I693
I252
g81
tp1770
aa(lp1771
(I603
I216
g56
tp1772
aa(lp1773
(I639
I162
g8
tp1774
aa(lp1775
(I711
I261
g97
tp1776
aa(lp1777
(I603
I126
g59
tp1778
aa(lp1779
(I603
I117
g69
tp1780
aa(lp1781
(I603
I270
g24
tp1782
aa(lp1783
(I603
I99
g327
tp1784
aa(lp1785
(I603
I126
g327
tp1786
aa(lp1787
(I711
I234
g8
tp1788
aa(lp1789
(I693
I243
g97
tp1790
aa(lp1791
(I675
I72
g5
tp1792
aa(lp1793
(I711
I81
g53
tp1794
aa(lp1795
(I603
I135
g69
tp1796
aa(lp1797
(I675
I162
g59
tp1798
aa(lp1799
(I657
I216
g5
tp1800
aa(lp1801
(I603
I126
g81
tp1802
aa(lp1803
(I657
I189
g56
tp1804
aa(lp1805
(I657
I144
g97
tp1806
aa(lp1807
(I675
I216
g69
tp1808
aa(lp1809
(I693
I81
g327
tp1810
aa(lp1811
(I603
I117
g24
tp1812
aa(lp1813
(I603
I243
g27
tp1814
aa(lp1815
(I675
I117
g327
tp1816
aa(lp1817
(I693
I126
g50
tp1818
aa(lp1819
(I693
I171
g97
tp1820
aa(lp1821
(I675
I198
g112
tp1822
aa(lp1823
(I657
I198
g78
tp1824
aa(lp1825
(I711
I144
g56
tp1826
aa(lp1827
(I693
I81
g50
tp1828
aa(lp1829
(I603
I189
g78
tp1830
aa(lp1831
(I603
I90
g69
tp1832
aa(lp1833
(I711
I153
g66
tp1834
aa(lp1835
(I675
I198
g50
tp1836
aa(lp1837
(I639
I81
g8
tp1838
aa(lp1839
(I639
I243
g2
tp1840
aa(lp1841
(I603
I72
g115
tp1842
aa(lp1843
(I693
I72
g66
tp1844
aa(lp1845
(I639
I252
g50
tp1846
aa(lp1847
(I711
I234
g88
tp1848
aa(lp1849
(I711
I207
g8
tp1850
aa(lp1851
(I621
I225
g53
tp1852
aa(lp1853
(I711
I162
g150
tp1854
aa(lp1855
(I693
I261
g112
tp1856
aa(lp1857
(I657
I252
g19
tp1858
aa(lp1859
(I675
I162
g69
tp1860
aa(lp1861
(I657
I171
g150
tp1862
aa(lp1863
(I675
I144
g24
tp1864
aa(lp1865
(I711
I198
g44
tp1866
aa(lp1867
(I693
I243
g30
tp1868
aa(lp1869
(I711
I270
g69
tp1870
aa(lp1871
(I621
I189
g27
tp1872
aa(lp1873
(I621
I252
g78
tp1874
aa(lp1875
(I693
I117
g88
tp1876
aa(lp1877
(I675
I126
g47
tp1878
aa(lp1879
(I675
I126
g33
tp1880
aa(lp1881
(I693
I72
g69
tp1882
aa(lp1883
(I711
I252
g19
tp1884
aa(lp1885
(I657
I72
g16
tp1886
aa(lp1887
(I675
I171
g66
tp1888
aa(lp1889
(I657
I126
g53
tp1890
aa(lp1891
(I693
I225
g44
tp1892
aa(lp1893
(I693
I144
g88
tp1894
aa(lp1895
(I603
I243
g327
tp1896
aa(lp1897
(I621
I207
g11
tp1898
aa(lp1899
(I675
I207
g44
tp1900
aa(lp1901
(I639
I243
g2
tp1902
aa(lp1903
(I693
I180
g112
tp1904
aa(lp1905
(I639
I162
g30
tp1906
aa(lp1907
(I693
I261
g115
tp1908
aa(lp1909
(I603
I81
g19
tp1910
aa(lp1911
(I621
I252
g97
tp1912
aa(lp1913
(I621
I135
g69
tp1914
aa(lp1915
(I657
I126
g81
tp1916
aa(lp1917
(I711
I180
g24
tp1918
aa(lp1919
(I657
I180
g11
tp1920
aa(lp1921
(I711
I189
g16
tp1922
aa(lp1923
(I639
I135
g2
tp1924
aa(lp1925
(I603
I108
g66
tp1926
aa(lp1927
(I675
I198
g97
tp1928
aa(lp1929
(I621
I180
g44
tp1930
aa(lp1931
(I693
I90
g11
tp1932
aa(lp1933
(I711
I198
g44
tp1934
aa(lp1935
(I603
I180
g8
tp1936
aa(lp1937
(I675
I270
g5
tp1938
aa(lp1939
(I675
I270
g16
tp1940
aa(lp1941
(I639
I81
g81
tp1942
aa(lp1943
(I657
I207
g44
tp1944
aa(lp1945
(I675
I198
g24
tp1946
aa(lp1947
(I657
I90
g327
tp1948
aa(lp1949
(I711
I261
g30
tp1950
aa(lp1951
(I603
I108
g8
tp1952
aa(lp1953
(I711
I216
g8
tp1954
aa(lp1955
(I639
I72
g33
tp1956
aa(lp1957
(I639
I90
g47
tp1958
aa(lp1959
(I675
I252
g81
tp1960
aa(lp1961
(I693
I216
g30
tp1962
aa(lp1963
(I621
I81
g30
tp1964
aa(lp1965
(I711
I216
g2
tp1966
aa(lp1967
(I675
I99
g30
tp1968
aa(lp1969
(I711
I72
g327
tp1970
aa(lp1971
(I657
I207
g11
tp1972
aa(lp1973
(I711
I261
g81
tp1974
aa(lp1975
(I693
I261
g16
tp1976
aa(lp1977
(I657
I135
g2
tp1978
aa(lp1979
(I711
I144
g53
tp1980
aa(lp1981
(I621
I144
g47
tp1982
aa(lp1983
(I639
I144
g150
tp1984
aa(lp1985
(I657
I126
g66
tp1986
aa(lp1987
(I621
I261
g78
tp1988
aa(lp1989
(I603
I90
g24
tp1990
aa(lp1991
(I657
I189
g33
tp1992
aa(lp1993
(I711
I225
g59
tp1994
aa(lp1995
(I693
I216
g30
tp1996
aa(lp1997
(I639
I162
g56
tp1998
aa(lp1999
(I675
I171
g115
tp2000
aa(lp2001
(I621
I216
g19
tp2002
aa(lp2003
(I657
I252
g24
tp2004
aa(lp2005
(I693
I90
g24
tp2006
aa(lp2007
(I693
I207
g16
tp2008
aa(lp2009
(I693
I270
g150
tp2010
aa(lp2011
(I639
I225
g115
tp2012
aa(lp2013
(I639
I270
g2
tp2014
aa(lp2015
(I675
I189
g30
tp2016
aa(lp2017
(I657
I153
g44
tp2018
aa(lp2019
(I675
I153
g33
tp2020
aa(lp2021
(I639
I81
g66
tp2022
aa(lp2023
(I639
I72
g150
tp2024
aa(lp2025
(I621
I117
g78
tp2026
aa(lp2027
(I819
I126
g16
tp2028
aa(lp2029
(I765
I81
g16
tp2030
aa(lp2031
(I747
I234
g81
tp2032
aa(lp2033
(I819
I252
g8
tp2034
aa(lp2035
(I747
I144
g44
tp2036
aa(lp2037
(I801
I180
g11
tp2038
aa(lp2039
(I819
I117
g88
tp2040
aa(lp2041
(I765
I252
g11
tp2042
aa(lp2043
(I801
I126
g47
tp2044
aa(lp2045
(I783
I153
g19
tp2046
aa(lp2047
(I801
I198
g112
tp2048
aa(lp2049
(I801
I108
g53
tp2050
aa(lp2051
(I801
I198
g56
tp2052
aa(lp2053
(I747
I225
g50
tp2054
aa(lp2055
(I783
I234
g115
tp2056
aa(lp2057
(I819
I135
g27
tp2058
aa(lp2059
(I819
I189
g115
tp2060
aa(lp2061
(I837
I81
g88
tp2062
aa(lp2063
(I765
I153
g112
tp2064
aa(lp2065
(I747
I234
g33
tp2066
aa(lp2067
(I747
I171
g24
tp2068
aa(lp2069
(I783
I252
g66
tp2070
aa(lp2071
(I855
I270
g88
tp2072
aa(lp2073
(I801
I234
g69
tp2074
aa(lp2075
(I837
I225
g8
tp2076
aa(lp2077
(I747
I117
g53
tp2078
aa(lp2079
(I837
I216
g30
tp2080
aa(lp2081
(I747
I135
g33
tp2082
aa(lp2083
(I819
I243
g2
tp2084
aa(lp2085
(I837
I90
g16
tp2086
aa(lp2087
(I837
I243
g97
tp2088
aa(lp2089
(I783
I144
g50
tp2090
aa(lp2091
(I783
I108
g69
tp2092
aa(lp2093
(I855
I198
g88
tp2094
aa(lp2095
(I747
I81
g8
tp2096
aa(lp2097
(I747
I99
g44
tp2098
aa(lp2099
(I837
I243
g81
tp2100
aa(lp2101
(I837
I216
g112
tp2102
aa(lp2103
(I855
I216
g112
tp2104
aa(lp2105
(I783
I270
g59
tp2106
aa(lp2107
(I783
I270
g30
tp2108
aa(lp2109
(I855
I135
g115
tp2110
aa(lp2111
(I837
I234
g66
tp2112
aa(lp2113
(I855
I261
g16
tp2114
aa(lp2115
(I801
I207
g78
tp2116
aa(lp2117
(I837
I261
g78
tp2118
aa(lp2119
(I855
I99
g88
tp2120
aa(lp2121
(I855
I261
g327
tp2122
aa(lp2123
(I747
I198
g112
tp2124
aa(lp2125
(I819
I108
g19
tp2126
aa(lp2127
(I747
I171
g56
tp2128
aa(lp2129
(I801
I207
g59
tp2130
aa(lp2131
(I819
I108
g11
tp2132
aa(lp2133
(I747
I270
g16
tp2134
aa(lp2135
(I765
I171
g78
tp2136
aa(lp2137
(I783
I126
g59
tp2138
aa(lp2139
(I747
I99
g19
tp2140
aa(lp2141
(I837
I225
g78
tp2142
aa(lp2143
(I783
I90
g327
tp2144
aa(lp2145
(I747
I162
g88
tp2146
aa(lp2147
(I801
I216
g112
tp2148
aa(lp2149
(I837
I108
g8
tp2150
aa(lp2151
(I783
I99
g11
tp2152
aa(lp2153
(I837
I144
g115
tp2154
aa(lp2155
(I765
I81
g115
tp2156
aa(lp2157
(I765
I81
g112
tp2158
aa(lp2159
(I765
I180
g81
tp2160
aa(lp2161
(I837
I234
g81
tp2162
aa(lp2163
(I855
I225
g33
tp2164
aa(lp2165
(I765
I126
g8
tp2166
aa(lp2167
(I747
I72
g150
tp2168
aa(lp2169
(I801
I90
g53
tp2170
aa(lp2171
(I855
I216
g8
tp2172
aa(lp2173
(I855
I252
g2
tp2174
aa(lp2175
(I747
I81
g81
tp2176
aa(lp2177
(I819
I126
g53
tp2178
aa(lp2179
(I783
I243
g53
tp2180
aa(lp2181
(I801
I243
g78
tp2182
aa(lp2183
(I747
I234
g88
tp2184
aa(lp2185
(I837
I234
g2
tp2186
aa(lp2187
(I837
I261
g53
tp2188
aa(lp2189
(I837
I180
g88
tp2190
aa(lp2191
(I801
I162
g81
tp2192
aa(lp2193
(I747
I270
g115
tp2194
aa(lp2195
(I747
I261
g88
tp2196
aa(lp2197
(I801
I198
g88
tp2198
aa(lp2199
(I765
I99
g24
tp2200
aa(lp2201
(I765
I225
g59
tp2202
aa(lp2203
(I801
I90
g66
tp2204
aa(lp2205
(I819
I261
g81
tp2206
aa(lp2207
(I855
I72
g115
tp2208
aa(lp2209
(I783
I171
g112
tp2210
aa(lp2211
(I783
I180
g50
tp2212
aa(lp2213
(I855
I117
g2
tp2214
aa(lp2215
(I801
I234
g81
tp2216
aa(lp2217
(I783
I270
g59
tp2218
aa(lp2219
(I837
I225
g69
tp2220
aa(lp2221
(I819
I189
g53
tp2222
aa(lp2223
(I855
I270
g8
tp2224
aa(lp2225
(I747
I207
g44
tp2226
aa(lp2227
(I801
I162
g81
tp2228
aa(lp2229
(I747
I243
g88
tp2230
aa(lp2231
(I747
I198
g47
tp2232
aa(lp2233
(I801
I81
g5
tp2234
aa(lp2235
(I783
I99
g66
tp2236
aa(lp2237
(I747
I108
g44
tp2238
aa(lp2239
(I837
I252
g47
tp2240
aa(lp2241
(I819
I243
g47
tp2242
aa(lp2243
(I765
I261
g11
tp2244
aa(lp2245
(I855
I72
g33
tp2246
aa(lp2247
(I747
I126
g53
tp2248
aa(lp2249
(I855
I81
g66
tp2250
aa(lp2251
(I855
I243
g16
tp2252
aa(lp2253
(I855
I144
g27
tp2254
aa(lp2255
(I747
I126
g5
tp2256
aa(lp2257
(I837
I252
g69
tp2258
aa(lp2259
(I837
I99
g44
tp2260
aa(lp2261
(I855
I108
g327
tp2262
aa(lp2263
(I801
I270
g56
tp2264
aa(lp2265
(I801
I171
g24
tp2266
aa(lp2267
(I783
I180
g150
tp2268
aa(lp2269
(I783
I234
g8
tp2270
aa(lp2271
(I801
I261
g69
tp2272
aa(lp2273
(I783
I126
g5
tp2274
aa(lp2275
(I783
I180
g81
tp2276
aa(lp2277
(I801
I72
g16
tp2278
aa(lp2279
(I819
I216
g27
tp2280
aa(lp2281
(I855
I126
g97
tp2282
aa(lp2283
(I801
I90
g16
tp2284
aa(lp2285
(I801
I81
g56
tp2286
aa(lp2287
(I855
I108
g33
tp2288
aa(lp2289
(I801
I180
g30
tp2290
aa(lp2291
(I747
I153
g112
tp2292
aa(lp2293
(I801
I90
g27
tp2294
aa(lp2295
(I765
I207
g5
tp2296
aa(lp2297
(I783
I234
g47
tp2298
aa(lp2299
(I783
I189
g56
tp2300
aa(lp2301
(I819
I162
g16
tp2302
aa(lp2303
(I801
I216
g150
tp2304
aa(lp2305
(I819
I126
g19
tp2306
aa(lp2307
(I855
I81
g2
tp2308
aa(lp2309
(I819
I261
g56
tp2310
aa(lp2311
(I837
I234
g27
tp2312
aa(lp2313
(I765
I162
g327
tp2314
aa(lp2315
(I855
I261
g44
tp2316
aa(lp2317
(I783
I135
g69
tp2318
aa(lp2319
(I837
I198
g47
tp2320
aa(lp2321
(I837
I126
g56
tp2322
aa(lp2323
(I837
I153
g8
tp2324
aa(lp2325
(I819
I207
g88
tp2326
aa(lp2327
(I783
I180
g115
tp2328
aa(lp2329
(I783
I198
g24
tp2330
aa(lp2331
(I855
I144
g11
tp2332
aa(lp2333
(I765
I216
g81
tp2334
aa(lp2335
(I819
I234
g69
tp2336
aa(lp2337
(I837
I180
g115
tp2338
aa(lp2339
(I801
I126
g150
tp2340
aa(lp2341
(I855
I90
g47
tp2342
aa(lp2343
(I855
I117
g50
tp2344
aa(lp2345
(I747
I180
g33
tp2346
aa(lp2347
(I765
I144
g88
tp2348
aa(lp2349
(I837
I216
g112
tp2350
aa(lp2351
(I819
I126
g30
tp2352
aa(lp2353
(I801
I135
g88
tp2354
aa(lp2355
(I837
I81
g69
tp2356
aa(lp2357
(I819
I243
g50
tp2358
aa(lp2359
(I819
I207
g69
tp2360
aa(lp2361
(I765
I144
g33
tp2362
aa(lp2363
(I801
I171
g112
tp2364
aa(lp2365
(I855
I261
g69
tp2366
aa(lp2367
(I783
I162
g50
tp2368
aa(lp2369
(I837
I207
g78
tp2370
aa(lp2371
(I765
I72
g5
tp2372
aa(lp2373
(I801
I243
g88
tp2374
aa(lp2375
(I747
I198
g59
tp2376
aa(lp2377
(I819
I144
g27
tp2378
aa(lp2379
(I837
I162
g44
tp2380
aa(lp2381
(I855
I126
g81
tp2382
aa(lp2383
(I747
I270
g53
tp2384
aa(lp2385
(I837
I153
g44
tp2386
aa(lp2387
(I801
I72
g66
tp2388
aa(lp2389
(I837
I72
g88
tp2390
aa(lp2391
(I747
I153
g59
tp2392
aa(lp2393
(I819
I270
g88
tp2394
aa(lp2395
(I783
I216
g81
tp2396
aa(lp2397
(I855
I225
g112
tp2398
aa(lp2399
(I783
I198
g30
tp2400
aa(lp2401
(I837
I216
g8
tp2402
aa(lp2403
(I819
I171
g50
tp2404
aa(lp2405
(I765
I207
g2
tp2406
aa(lp2407
(I747
I216
g2
tp2408
aa(lp2409
(I837
I135
g81
tp2410
aa(lp2411
(I819
I270
g78
tp2412
aa(lp2413
(I783
I270
g8
tp2414
aa(lp2415
(I819
I153
g24
tp2416
aa(lp2417
(I747
I252
g78
tp2418
aa(lp2419
(I765
I171
g50
tp2420
aa(lp2421
(I855
I162
g150
tp2422
aa(lp2423
(I819
I135
g81
tp2424
aa(lp2425
(I801
I225
g11
tp2426
aa(lp2427
(I981
I126
g112
tp2428
aa(lp2429
(I909
I216
g59
tp2430
aa(lp2431
(I945
I117
g327
tp2432
aa(lp2433
(I963
I270
g11
tp2434
aa(lp2435
(I999
I153
g47
tp2436
aa(lp2437
(I999
I117
g66
tp2438
aa(lp2439
(I945
I270
g112
tp2440
aa(lp2441
(I999
I126
g24
tp2442
aa(lp2443
(I909
I162
g8
tp2444
aa(lp2445
(I999
I180
g33
tp2446
aa(lp2447
(I891
I117
g16
tp2448
aa(lp2449
(I927
I198
g5
tp2450
aa(lp2451
(I945
I117
g30
tp2452
aa(lp2453
(I891
I108
g150
tp2454
aa(lp2455
(I981
I189
g97
tp2456
aa(lp2457
(I891
I261
g5
tp2458
aa(lp2459
(I945
I234
g150
tp2460
aa(lp2461
(I999
I189
g78
tp2462
aa(lp2463
(I945
I261
g44
tp2464
aa(lp2465
(I927
I189
g50
tp2466
aa(lp2467
(I999
I108
g150
tp2468
aa(lp2469
(I999
I270
g47
tp2470
aa(lp2471
(I891
I243
g112
tp2472
aa(lp2473
(I927
I261
g69
tp2474
aa(lp2475
(I945
I135
g78
tp2476
aa(lp2477
(I981
I270
g327
tp2478
aa(lp2479
(I963
I135
g66
tp2480
aa(lp2481
(I909
I108
g150
tp2482
aa(lp2483
(I927
I117
g33
tp2484
aa(lp2485
(I963
I243
g78
tp2486
aa(lp2487
(I945
I252
g8
tp2488
aa(lp2489
(I909
I216
g11
tp2490
aa(lp2491
(I891
I144
g50
tp2492
aa(lp2493
(I945
I162
g327
tp2494
aa(lp2495
(I999
I198
g47
tp2496
aa(lp2497
(I891
I144
g50
tp2498
aa(lp2499
(I927
I81
g16
tp2500
aa(lp2501
(I927
I189
g88
tp2502
aa(lp2503
(I945
I117
g97
tp2504
aa(lp2505
(I909
I72
g112
tp2506
aa(lp2507
(I927
I198
g33
tp2508
aa(lp2509
(I909
I126
g78
tp2510
aa(lp2511
(I945
I270
g24
tp2512
aa(lp2513
(I999
I252
g44
tp2514
aa(lp2515
(I963
I144
g30
tp2516
aa(lp2517
(I909
I198
g16
tp2518
aa(lp2519
(I963
I90
g50
tp2520
aa(lp2521
(I963
I216
g112
tp2522
aa(lp2523
(I891
I270
g2
tp2524
aa(lp2525
(I927
I153
g56
tp2526
aa(lp2527
(I891
I81
g81
tp2528
aa(lp2529
(I945
I162
g81
tp2530
aa(lp2531
(I891
I81
g327
tp2532
aa(lp2533
(I891
I189
g115
tp2534
aa(lp2535
(I981
I234
g81
tp2536
aa(lp2537
(I981
I234
g16
tp2538
aa(lp2539
(I963
I126
g97
tp2540
aa(lp2541
(I999
I252
g81
tp2542
aa(lp2543
(I981
I162
g56
tp2544
aa(lp2545
(I927
I144
g56
tp2546
aa(lp2547
(I981
I225
g88
tp2548
aa(lp2549
(I945
I108
g327
tp2550
aa(lp2551
(I909
I189
g30
tp2552
aa(lp2553
(I909
I135
g88
tp2554
aa(lp2555
(I891
I189
g24
tp2556
aa(lp2557
(I927
I189
g53
tp2558
aa(lp2559
(I963
I180
g327
tp2560
aa(lp2561
(I981
I198
g327
tp2562
aa(lp2563
(I891
I90
g69
tp2564
aa(lp2565
(I909
I135
g8
tp2566
aa(lp2567
(I909
I81
g47
tp2568
aa(lp2569
(I963
I126
g5
tp2570
aa(lp2571
(I891
I252
g5
tp2572
aa(lp2573
(I891
I81
g66
tp2574
aa(lp2575
(I981
I135
g59
tp2576
aa(lp2577
(I945
I225
g97
tp2578
aa(lp2579
(I945
I81
g56
tp2580
aa(lp2581
(I999
I252
g112
tp2582
aa(lp2583
(I981
I153
g327
tp2584
aa(lp2585
(I909
I198
g50
tp2586
aa(lp2587
(I891
I252
g47
tp2588
aa(lp2589
(I981
I162
g115
tp2590
aa(lp2591
(I909
I234
g66
tp2592
aa(lp2593
(I891
I252
g66
tp2594
aa(lp2595
(I909
I270
g2
tp2596
aa(lp2597
(I909
I261
g56
tp2598
aa(lp2599
(I963
I216
g78
tp2600
aa(lp2601
(I927
I189
g11
tp2602
aa(lp2603
(I891
I243
g11
tp2604
aa(lp2605
(I945
I198
g53
tp2606
aa(lp2607
(I927
I108
g24
tp2608
aa(lp2609
(I927
I216
g81
tp2610
aa(lp2611
(I891
I198
g5
tp2612
aa(lp2613
(I945
I144
g44
tp2614
aa(lp2615
(I981
I252
g8
tp2616
aa(lp2617
(I891
I99
g53
tp2618
aa(lp2619
(I927
I225
g327
tp2620
aa(lp2621
(I981
I108
g16
tp2622
aa(lp2623
(I945
I198
g5
tp2624
aa(lp2625
(I963
I225
g11
tp2626
aa(lp2627
(I981
I234
g33
tp2628
aa(lp2629
(I999
I153
g66
tp2630
aa(lp2631
(I909
I216
g2
tp2632
aa(lp2633
(I945
I234
g88
tp2634
aa(lp2635
(I891
I189
g2
tp2636
aa(lp2637
(I963
I171
g30
tp2638
aa(lp2639
(I927
I198
g97
tp2640
aa(lp2641
(I963
I261
g81
tp2642
aa(lp2643
(I999
I225
g81
tp2644
aa(lp2645
(I963
I252
g2
tp2646
aa(lp2647
(I963
I81
g56
tp2648
aa(lp2649
(I909
I162
g81
tp2650
aa(lp2651
(I927
I198
g112
tp2652
aa(lp2653
(I909
I234
g24
tp2654
aa(lp2655
(I891
I252
g53
tp2656
aa(lp2657
(I999
I261
g8
tp2658
aa(lp2659
(I999
I243
g112
tp2660
aa(lp2661
(I891
I90
g47
tp2662
aa(lp2663
(I945
I207
g33
tp2664
aa(lp2665
(I999
I252
g59
tp2666
aa(lp2667
(I981
I234
g5
tp2668
aa(lp2669
(I945
I225
g16
tp2670
aa(lp2671
(I909
I135
g66
tp2672
aa(lp2673
(I909
I180
g115
tp2674
aa(lp2675
(I927
I99
g47
tp2676
aa(lp2677
(I891
I243
g19
tp2678
aa(lp2679
(I891
I117
g56
tp2680
aa(lp2681
(I927
I261
g19
tp2682
aa(lp2683
(I909
I180
g66
tp2684
aa(lp2685
(I963
I81
g27
tp2686
aa(lp2687
(I963
I171
g53
tp2688
aa(lp2689
(I981
I81
g27
tp2690
aa(lp2691
(I999
I90
g2
tp2692
aa(lp2693
(I891
I180
g59
tp2694
aa(lp2695
(I927
I207
g81
tp2696
aa(lp2697
(I945
I270
g5
tp2698
aa(lp2699
(I981
I234
g16
tp2700
aa(lp2701
(I981
I216
g56
tp2702
aa(lp2703
(I981
I270
g8
tp2704
aa(lp2705
(I927
I81
g27
tp2706
aa(lp2707
(I999
I180
g30
tp2708
aa(lp2709
(I981
I207
g59
tp2710
aa(lp2711
(I927
I126
g88
tp2712
aa(lp2713
(I909
I135
g47
tp2714
aa(lp2715
(I999
I207
g88
tp2716
aa(lp2717
(I999
I243
g19
tp2718
aa(lp2719
(I999
I243
g69
tp2720
aa(lp2721
(I909
I189
g112
tp2722
aa(lp2723
(I963
I189
g5
tp2724
aa(lp2725
(I927
I180
g47
tp2726
aa(lp2727
(I963
I90
g30
tp2728
aa(lp2729
(I891
I234
g33
tp2730
aa(lp2731
(I963
I270
g81
tp2732
aa(lp2733
(I891
I135
g2
tp2734
aa(lp2735
(I927
I162
g115
tp2736
aa(lp2737
(I999
I153
g27
tp2738
aa(lp2739
(I945
I171
g19
tp2740
aa(lp2741
(I927
I171
g69
tp2742
aa(lp2743
(I963
I81
g81
tp2744
aa(lp2745
(I909
I153
g47
tp2746
aa(lp2747
(I981
I216
g19
tp2748
aa(lp2749
(I945
I189
g112
tp2750
aa(lp2751
(I981
I207
g33
tp2752
aa(lp2753
(I945
I207
g88
tp2754
aa(lp2755
(I945
I198
g150
tp2756
aa(lp2757
(I891
I198
g69
tp2758
aa(lp2759
(I927
I180
g27
tp2760
aa(lp2761
(I927
I189
g33
tp2762
aa(lp2763
(I999
I81
g33
tp2764
aa(lp2765
(I927
I135
g5
tp2766
aa(lp2767
(I981
I81
g24
tp2768
aa(lp2769
(I909
I252
g19
tp2770
aa(lp2771
(I963
I234
g112
tp2772
aa(lp2773
(I963
I171
g30
tp2774
aa(lp2775
(I945
I252
g59
tp2776
aa(lp2777
(I981
I234
g30
tp2778
aa(lp2779
(I891
I171
g27
tp2780
aa(lp2781
(I981
I171
g88
tp2782
aa(lp2783
(I945
I171
g115
tp2784
aa(lp2785
(I909
I234
g53
tp2786
aa(lp2787
(I909
I270
g115
tp2788
aa(lp2789
(I909
I198
g8
tp2790
aa(lp2791
(I927
I126
g56
tp2792
aa(lp2793
(I909
I261
g19
tp2794
aa(lp2795
(I945
I270
g53
tp2796
aa(lp2797
(I909
I207
g30
tp2798
aa(lp2799
(I909
I207
g19
tp2800
aa(lp2801
(I963
I90
g81
tp2802
aa(lp2803
(I999
I189
g24
tp2804
aa(lp2805
(I999
I207
g19
tp2806
aa(lp2807
(I999
I90
g5
tp2808
aa(lp2809
(I909
I108
g327
tp2810
aa(lp2811
(I891
I108
g19
tp2812
aa(lp2813
(I927
I162
g24
tp2814
aa(lp2815
(I891
I234
g112
tp2816
aa(lp2817
(I945
I216
g78
tp2818
aa(lp2819
(I909
I135
g50
tp2820
aa(lp2821
(I909
I72
g56
tp2822
aa(lp2823
(I927
I144
g5
tp2824
aa(lp2825
(I981
I252
g30
tp2826
aa(lp2827
(I1143
I153
g27
tp2828
aa(lp2829
(I1089
I81
g30
tp2830
aa(lp2831
(I1125
I171
g5
tp2832
aa(lp2833
(I1125
I189
g24
tp2834
aa(lp2835
(I1143
I225
g115
tp2836
aa(lp2837
(I1071
I216
g112
tp2838
aa(lp2839
(I1107
I144
g150
tp2840
aa(lp2841
(I1053
I144
g59
tp2842
aa(lp2843
(I1035
I135
g33
tp2844
aa(lp2845
(I1089
I261
g16
tp2846
aa(lp2847
(I1143
I207
g327
tp2848
aa(lp2849
(I1035
I270
g69
tp2850
aa(lp2851
(I1089
I99
g11
tp2852
aa(lp2853
(I1071
I72
g11
tp2854
aa(lp2855
(I1071
I180
g150
tp2856
aa(lp2857
(I1143
I270
g112
tp2858
aa(lp2859
(I1071
I171
g88
tp2860
aa(lp2861
(I1071
I117
g8
tp2862
aa(lp2863
(I1071
I162
g97
tp2864
aa(lp2865
(I1089
I162
g47
tp2866
aa(lp2867
(I1089
I162
g16
tp2868
aa(lp2869
(I1089
I243
g50
tp2870
aa(lp2871
(I1143
I252
g112
tp2872
aa(lp2873
(I1035
I135
g112
tp2874
aa(lp2875
(I1089
I225
g8
tp2876
aa(lp2877
(I1107
I99
g44
tp2878
aa(lp2879
(I1107
I207
g47
tp2880
aa(lp2881
(I1125
I243
g33
tp2882
aa(lp2883
(I1125
I234
g97
tp2884
aa(lp2885
(I1107
I135
g327
tp2886
aa(lp2887
(I1035
I261
g327
tp2888
aa(lp2889
(I1035
I216
g66
tp2890
aa(lp2891
(I1053
I162
g11
tp2892
aa(lp2893
(I1143
I72
g115
tp2894
aa(lp2895
(I1089
I180
g69
tp2896
aa(lp2897
(I1035
I180
g97
tp2898
aa(lp2899
(I1107
I252
g97
tp2900
aa(lp2901
(I1125
I252
g327
tp2902
aa(lp2903
(I1107
I216
g97
tp2904
aa(lp2905
(I1143
I225
g47
tp2906
aa(lp2907
(I1089
I234
g16
tp2908
aa(lp2909
(I1071
I270
g327
tp2910
aa(lp2911
(I1125
I72
g327
tp2912
aa(lp2913
(I1107
I171
g30
tp2914
aa(lp2915
(I1089
I126
g88
tp2916
aa(lp2917
(I1107
I99
g2
tp2918
aa(lp2919
(I1125
I99
g30
tp2920
aa(lp2921
(I1053
I180
g30
tp2922
aa(lp2923
(I1143
I153
g50
tp2924
aa(lp2925
(I1035
I225
g112
tp2926
aa(lp2927
(I1053
I198
g81
tp2928
aa(lp2929
(I1125
I153
g97
tp2930
aa(lp2931
(I1143
I72
g59
tp2932
aa(lp2933
(I1107
I234
g150
tp2934
aa(lp2935
(I1071
I171
g33
tp2936
aa(lp2937
(I1089
I216
g327
tp2938
aa(lp2939
(I1035
I180
g33
tp2940
aa(lp2941
(I1053
I144
g97
tp2942
aa(lp2943
(I1053
I216
g112
tp2944
aa(lp2945
(I1125
I171
g88
tp2946
aa(lp2947
(I1107
I126
g88
tp2948
aa(lp2949
(I1125
I72
g112
tp2950
aa(lp2951
(I1071
I90
g56
tp2952
aa(lp2953
(I1035
I270
g44
tp2954
aa(lp2955
(I1035
I180
g5
tp2956
aa(lp2957
(I1143
I153
g81
tp2958
aa(lp2959
(I1053
I216
g327
tp2960
aa(lp2961
(I1125
I189
g53
tp2962
aa(lp2963
(I1107
I126
g19
tp2964
aa(lp2965
(I1071
I99
g47
tp2966
aa(lp2967
(I1143
I90
g327
tp2968
aa(lp2969
(I1089
I216
g8
tp2970
aa(lp2971
(I1107
I189
g56
tp2972
aa(lp2973
(I1053
I252
g327
tp2974
aa(lp2975
(I1107
I171
g8
tp2976
aa(lp2977
(I1125
I225
g150
tp2978
aa(lp2979
(I1107
I108
g11
tp2980
aa(lp2981
(I1035
I198
g27
tp2982
aa(lp2983
(I1035
I99
g327
tp2984
aa(lp2985
(I1035
I81
g16
tp2986
aa(lp2987
(I1071
I225
g16
tp2988
aa(lp2989
(I1071
I189
g44
tp2990
aa(lp2991
(I1125
I99
g47
tp2992
aa(lp2993
(I1071
I117
g16
tp2994
aa(lp2995
(I1053
I234
g33
tp2996
aa(lp2997
(I1071
I126
g44
tp2998
aa(lp2999
(I1089
I153
g19
tp3000
aa(lp3001
(I1035
I243
g16
tp3002
aa(lp3003
(I1035
I180
g47
tp3004
aa(lp3005
(I1143
I108
g44
tp3006
aa(lp3007
(I1035
I234
g115
tp3008
aa(lp3009
(I1053
I198
g66
tp3010
aa(lp3011
(I1089
I144
g5
tp3012
aa(lp3013
(I1125
I198
g59
tp3014
aa(lp3015
(I1071
I135
g115
tp3016
aa(lp3017
(I1125
I162
g16
tp3018
aa(lp3019
(I1053
I126
g53
tp3020
aa(lp3021
(I1053
I72
g56
tp3022
aa(lp3023
(I1125
I252
g2
tp3024
aa(lp3025
(I1053
I117
g78
tp3026
aa(lp3027
(I1089
I108
g11
tp3028
aa(lp3029
(I1071
I207
g11
tp3030
aa(lp3031
(I1125
I108
g150
tp3032
aa(lp3033
(I1035
I117
g81
tp3034
aa(lp3035
(I1125
I135
g50
tp3036
aa(lp3037
(I1089
I243
g69
tp3038
aa(lp3039
(I1143
I225
g150
tp3040
aa(lp3041
(I1107
I135
g327
tp3042
aa(lp3043
(I1143
I117
g30
tp3044
aa(lp3045
(I1107
I207
g27
tp3046
aa(lp3047
(I1125
I90
g53
tp3048
aa(lp3049
(I1107
I180
g47
tp3050
aa(lp3051
(I1071
I81
g19
tp3052
aa(lp3053
(I1125
I81
g11
tp3054
aa(lp3055
(I1125
I81
g97
tp3056
aa(lp3057
(I1143
I117
g19
tp3058
aa(lp3059
(I1035
I180
g44
tp3060
aa(lp3061
(I1125
I90
g19
tp3062
aa(lp3063
(I1143
I144
g150
tp3064
aa(lp3065
(I1053
I216
g16
tp3066
aa(lp3067
(I1071
I234
g2
tp3068
aa(lp3069
(I1071
I216
g81
tp3070
aa(lp3071
(I1035
I126
g2
tp3072
aa(lp3073
(I1125
I126
g19
tp3074
aa(lp3075
(I1125
I153
g88
tp3076
aa(lp3077
(I1125
I216
g30
tp3078
aa(lp3079
(I1107
I216
g88
tp3080
aa(lp3081
(I1125
I99
g44
tp3082
aa(lp3083
(I1035
I225
g11
tp3084
aa(lp3085
(I1089
I243
g19
tp3086
aa(lp3087
(I1053
I234
g115
tp3088
aa(lp3089
(I1143
I162
g78
tp3090
aa(lp3091
(I1071
I216
g30
tp3092
aa(lp3093
(I1143
I252
g16
tp3094
aa(lp3095
(I1143
I153
g69
tp3096
aa(lp3097
(I1071
I171
g50
tp3098
aa(lp3099
(I1107
I72
g5
tp3100
aa(lp3101
(I1107
I144
g78
tp3102
aa(lp3103
(I1035
I180
g8
tp3104
aa(lp3105
(I1125
I252
g78
tp3106
aa(lp3107
(I1071
I162
g97
tp3108
aa(lp3109
(I1143
I225
g69
tp3110
aa(lp3111
(I1053
I189
g30
tp3112
aa(lp3113
(I1071
I90
g30
tp3114
aa(lp3115
(I1053
I171
g59
tp3116
aa(lp3117
(I1035
I270
g44
tp3118
aa(lp3119
(I1143
I153
g2
tp3120
aa(lp3121
(I1125
I243
g66
tp3122
aa(lp3123
(I1107
I225
g24
tp3124
aa(lp3125
(I1125
I225
g19
tp3126
aa(lp3127
(I1071
I234
g33
tp3128
aa(lp3129
(I1143
I234
g50
tp3130
aa(lp3131
(I1053
I234
g27
tp3132
aa(lp3133
(I1089
I81
g59
tp3134
aa(lp3135
(I1035
I99
g115
tp3136
aa(lp3137
(I1089
I180
g115
tp3138
aa(lp3139
(I1089
I117
g56
tp3140
aa(lp3141
(I1089
I90
g66
tp3142
aa(lp3143
(I1071
I216
g97
tp3144
aa(lp3145
(I1071
I252
g150
tp3146
aa(lp3147
(I1071
I261
g327
tp3148
aa(lp3149
(I1035
I117
g78
tp3150
aa(lp3151
(I1035
I252
g5
tp3152
aa(lp3153
(I1035
I225
g56
tp3154
aa(lp3155
(I1143
I180
g59
tp3156
aa(lp3157
(I1089
I153
g53
tp3158
aa(lp3159
(I1053
I270
g30
tp3160
aa(lp3161
(I1053
I270
g112
tp3162
aa(lp3163
(I1107
I216
g53
tp3164
aa(lp3165
(I1089
I261
g53
tp3166
aa(lp3167
(I1125
I144
g47
tp3168
aa(lp3169
(I1089
I216
g44
tp3170
aa(lp3171
(I1125
I135
g33
tp3172
aa(lp3173
(I1035
I90
g30
tp3174
aa(lp3175
(I1107
I243
g11
tp3176
aa(lp3177
(I1035
I144
g5
tp3178
aa(lp3179
(I1107
I189
g30
tp3180
aa(lp3181
(I1143
I171
g50
tp3182
aa(lp3183
(I1035
I90
g66
tp3184
aa(lp3185
(I1107
I108
g8
tp3186
aa(lp3187
(I1143
I99
g44
tp3188
aa(lp3189
(I1107
I81
g150
tp3190
aa(lp3191
(I1035
I180
g112
tp3192
aa(lp3193
(I1143
I81
g88
tp3194
aa(lp3195
(I1107
I270
g66
tp3196
aa(lp3197
(I1071
I99
g53
tp3198
aa(lp3199
(I1125
I207
g27
tp3200
aa(lp3201
(I1071
I99
g33
tp3202
aa(lp3203
(I1143
I261
g47
tp3204
aa(lp3205
(I1071
I270
g2
tp3206
aa(lp3207
(I1071
I261
g27
tp3208
aa(lp3209
(I1053
I207
g81
tp3210
aa(lp3211
(I1107
I234
g327
tp3212
aa(lp3213
(I1107
I207
g69
tp3214
aa(lp3215
(I1071
I126
g47
tp3216
aa(lp3217
(I1089
I162
g53
tp3218
aa(lp3219
(I1089
I270
g88
tp3220
aa(lp3221
(I1035
I198
g5
tp3222
aa(lp3223
(I1071
I117
g150
tp3224
aa(lp3225
(I1125
I99
g33
tp3226
aa.