(lp0
(lp1
(I117
I243
S'u'
p2
tp3
aa(lp4
(I81
I171
S'f'
p5
tp6
aa(lp7
(I45
I63
S'a'
p8
tp9
aa(lp10
(I117
I270
S'm'
p11
tp12
aa(lp13
(I81
I261
S'q'
p14
tp15
aa(lp16
(I117
I261
g8
tp17
aa(lp18
(I45
I153
S'p'
p19
tp20
aa(lp21
(I135
I180
S'n'
p22
tp23
aa(lp24
(I117
I234
S'e'
p25
tp26
aa(lp27
(I117
I225
S'l'
p28
tp29
aa(lp30
(I99
I270
S'k'
p31
tp32
aa(lp33
(I81
I171
S'i'
p34
tp35
aa(lp36
(I63
I225
S'd'
p37
tp38
aa(lp39
(I99
I189
S'b'
p40
tp41
aa(lp42
(I63
I270
S't'
p43
tp44
aa(lp45
(I45
I171
S'x'
p46
tp47
aa(lp48
(I99
I234
g25
tp49
aa(lp50
(I81
I216
g43
tp51
aa(lp52
(I45
I126
S'z'
p53
tp54
aa(lp55
(I135
I207
g34
tp56
aa(lp57
(I63
I180
S'o'
p58
tp59
aa(lp60
(I81
I270
S'y'
p61
tp62
aa(lp63
(I45
I198
S'c'
p64
tp65
aa(lp66
(I81
I90
g2
tp67
aa(lp68
(I63
I108
g46
tp69
aa(lp70
(I45
I270
g40
tp71
aa(lp72
(I27
I189
g22
tp73
aa(lp74
(I27
I81
g22
tp75
aa(lp76
(I27
I198
g22
tp77
aa(lp78
(I117
I261
S'j'
p79
tp80
aa(lp81
(I81
I117
S'w'
p82
tp83
aa(lp84
(I135
I90
g5
tp85
aa(lp86
(I45
I99
S'v'
p87
tp88
aa(lp89
(I99
I252
g22
tp90
aa(lp91
(I99
I99
g58
tp92
aa(lp93
(I45
I252
S'r'
p94
tp95
aa(lp96
(I45
I216
g28
tp97
aa(lp98
(I63
I90
S's'
p99
tp100
aa(lp101
(I45
I117
g34
tp102
aa(lp103
(I117
I72
g34
tp104
aa(lp105
(I81
I99
g46
tp106
aa(lp107
(I117
I90
g87
tp108
aa(lp109
(I117
I180
g37
tp110
aa(lp111
(I63
I198
g25
tp112
aa(lp113
(I135
I72
g87
tp114
aa(lp115
(I27
I180
g40
tp116
aa(lp117
(I81
I90
g14
tp118
aa(lp119
(I63
I270
g82
tp120
aa(lp121
(I99
I270
g28
tp122
aa(lp123
(I63
I189
g11
tp124
aa(lp125
(I45
I72
g37
tp126
aa(lp127
(I27
I117
g2
tp128
aa(lp129
(I135
I198
g8
tp130
aa(lp131
(I99
I216
g58
tp132
aa(lp133
(I135
I63
g22
tp134
aa(lp135
(I63
I153
g58
tp136
aa(lp137
(I63
I90
g61
tp138
aa(lp139
(I81
I252
g58
tp140
aa(lp141
(I45
I81
g8
tp142
aa(lp143
(I45
I108
g31
tp144
aa(lp145
(I45
I135
g25
tp146
aa(lp147
(I99
I261
g46
tp148
aa(lp149
(I99
I99
g64
tp150
aa(lp151
(I99
I198
g99
tp152
aa(lp153
(I135
I243
g40
tp154
aa(lp155
(I63
I198
g34
tp156
aa(lp157
(I45
I108
g79
tp158
aa(lp159
(I27
I234
S'g'
p160
tp161
aa(lp162
(I27
I90
g94
tp163
aa(lp164
(I63
I252
g99
tp165
aa(lp166
(I81
I270
g14
tp167
aa(lp168
(I135
I171
g43
tp169
aa(lp170
(I135
I180
g2
tp171
aa(lp172
(I81
I135
g2
tp173
aa(lp174
(I135
I198
g25
tp175
aa(lp176
(I81
I171
g61
tp177
aa(lp178
(I99
I126
g31
tp179
aa(lp180
(I135
I135
g14
tp181
aa(lp182
(I63
I270
g8
tp183
aa(lp184
(I27
I81
g14
tp185
aa(lp186
(I117
I180
g64
tp187
aa(lp188
(I135
I99
g37
tp189
aa(lp190
(I135
I234
g160
tp191
aa(lp192
(I45
I252
g43
tp193
aa(lp194
(I45
I243
g25
tp195
aa(lp196
(I27
I225
g87
tp197
aa(lp198
(I81
I162
g25
tp199
aa(lp200
(I63
I234
g40
tp201
aa(lp202
(I81
I234
g53
tp203
aa(lp204
(I27
I135
g19
tp205
aa(lp206
(I63
I144
g37
tp207
aa(lp208
(I135
I216
g19
tp209
aa(lp210
(I27
I243
g14
tp211
aa(lp212
(I63
I162
g58
tp213
aa(lp214
(I117
I117
g43
tp215
aa(lp216
(I99
I171
g58
tp217
aa(lp218
(I63
I171
g25
tp219
aa(lp220
(I27
I117
g94
tp221
aa(lp222
(I27
I207
g87
tp223
aa(lp224
(I27
I72
g43
tp225
aa(lp226
(I63
I117
g31
tp227
aa(lp228
(I81
I108
S'h'
p229
tp230
aa(lp231
(I135
I180
g11
tp232
aa(lp233
(I99
I198
g160
tp234
aa(lp235
(I99
I108
g87
tp236
aa(lp237
(I99
I216
g22
tp238
aa(lp239
(I117
I261
g40
tp240
aa(lp241
(I63
I270
g53
tp242
aa(lp243
(I81
I108
g43
tp244
aa(lp245
(I45
I171
g28
tp246
aa(lp247
(I135
I198
g8
tp248
aa(lp249
(I117
I81
g14
tp250
aa(lp251
(I99
I261
g94
tp252
aa(lp253
(I99
I108
g46
tp254
aa(lp255
(I135
I108
g11
tp256
aa(lp257
(I63
I198
g94
tp258
aa(lp259
(I81
I252
g19
tp260
aa(lp261
(I99
I144
g5
tp262
aa(lp263
(I45
I216
g229
tp264
aa(lp265
(I45
I216
g14
tp266
aa(lp267
(I27
I261
g34
tp268
aa(lp269
(I135
I108
g58
tp270
aa(lp271
(I99
I189
g79
tp272
aa(lp273
(I117
I225
g28
tp274
aa(lp275
(I81
I90
g229
tp276
aa(lp277
(I63
I234
g25
tp278
aa(lp279
(I81
I234
g43
tp280
aa(lp281
(I117
I117
g14
tp282
aa(lp283
(I135
I216
g160
tp284
aa(lp285
(I45
I90
g79
tp286
aa(lp287
(I27
I126
g40
tp288
aa(lp289
(I99
I270
g8
tp290
aa(lp291
(I99
I216
g99
tp292
aa(lp293
(I117
I126
g229
tp294
aa(lp295
(I63
I162
g87
tp296
aa(lp297
(I45
I261
g31
tp298
aa(lp299
(I45
I144
g58
tp300
aa(lp301
(I27
I153
g40
tp302
aa(lp303
(I117
I198
g160
tp304
aa(lp305
(I45
I171
g19
tp306
aa(lp307
(I63
I261
g11
tp308
aa(lp309
(I135
I252
g46
tp310
aa(lp311
(I81
I234
g11
tp312
aa(lp313
(I135
I261
g64
tp314
aa(lp315
(I99
I162
g229
tp316
aa(lp317
(I27
I72
g58
tp318
aa(lp319
(I63
I144
g46
tp320
aa(lp321
(I135
I216
g40
tp322
aa(lp323
(I45
I126
g82
tp324
aa(lp325
(I63
I171
g43
tp326
aa(lp327
(I63
I234
g14
tp328
aa(lp329
(I45
I261
g8
tp330
aa(lp331
(I135
I270
g64
tp332
aa(lp333
(I81
I189
g82
tp334
aa(lp335
(I135
I135
g43
tp336
aa(lp337
(I135
I135
g2
tp338
aa(lp339
(I63
I135
g14
tp340
aa(lp341
(I45
I216
g58
tp342
aa(lp343
(I45
I90
g40
tp344
aa(lp345
(I117
I144
g14
tp346
aa(lp347
(I135
I234
g22
tp348
aa(lp349
(I63
I189
g82
tp350
aa(lp351
(I63
I63
g46
tp352
aa(lp353
(I135
I72
g14
tp354
aa(lp355
(I63
I81
g87
tp356
aa(lp357
(I135
I216
g22
tp358
aa(lp359
(I81
I99
g14
tp360
aa(lp361
(I81
I99
g37
tp362
aa(lp363
(I45
I225
g99
tp364
aa(lp365
(I81
I72
g87
tp366
aa(lp367
(I99
I216
g61
tp368
aa(lp369
(I135
I225
g34
tp370
aa(lp371
(I99
I171
g37
tp372
aa(lp373
(I81
I162
g58
tp374
aa(lp375
(I135
I135
g87
tp376
aa(lp377
(I45
I171
g25
tp378
aa(lp379
(I117
I252
g40
tp380
aa(lp381
(I117
I189
g94
tp382
aa(lp383
(I45
I243
g2
tp384
aa(lp385
(I27
I261
g19
tp386
aa(lp387
(I45
I171
g8
tp388
aa(lp389
(I117
I216
g28
tp390
aa(lp391
(I135
I234
g46
tp392
aa(lp393
(I45
I261
g82
tp394
aa(lp395
(I81
I207
g25
tp396
aa(lp397
(I135
I261
g46
tp398
aa(lp399
(I63
I63
g11
tp400
aa(lp401
(I135
I261
g160
tp402
aa(lp403
(I117
I198
g22
tp404
aa(lp405
(I81
I72
g64
tp406
aa(lp407
(I45
I207
g5
tp408
aa(lp409
(I45
I234
g46
tp410
aa(lp411
(I45
I99
g94
tp412
aa(lp413
(I117
I153
g61
tp414
aa(lp415
(I27
I252
g82
tp416
aa(lp417
(I99
I162
g53
tp418
aa(lp419
(I27
I207
g5
tp420
aa(lp421
(I45
I171
g25
tp422
aa(lp423
(I99
I108
g11
tp424
aa(lp425
(I81
I207
g28
tp426
aa(lp427
(I261
I234
g58
tp428
aa(lp429
(I243
I153
g229
tp430
aa(lp431
(I189
I72
g87
tp432
aa(lp433
(I261
I216
g43
tp434
aa(lp435
(I243
I144
g2
tp436
aa(lp437
(I279
I72
g61
tp438
aa(lp439
(I189
I135
g64
tp440
aa(lp441
(I207
I81
g160
tp442
aa(lp443
(I243
I108
g99
tp444
aa(lp445
(I243
I108
g99
tp446
aa(lp447
(I189
I270
g8
tp448
aa(lp449
(I171
I189
g87
tp450
aa(lp451
(I261
I117
g79
tp452
aa(lp453
(I207
I99
g28
tp454
aa(lp455
(I189
I90
g61
tp456
aa(lp457
(I243
I234
g19
tp458
aa(lp459
(I279
I243
g14
tp460
aa(lp461
(I189
I144
g14
tp462
aa(lp463
(I189
I189
g229
tp464
aa(lp465
(I189
I225
g53
tp466
aa(lp467
(I279
I243
g53
tp468
aa(lp469
(I261
I207
g61
tp470
aa(lp471
(I207
I225
g2
tp472
aa(lp473
(I279
I108
g61
tp474
aa(lp475
(I171
I243
g11
tp476
aa(lp477
(I225
I153
g87
tp478
aa(lp479
(I171
I81
g229
tp480
aa(lp481
(I279
I198
g43
tp482
aa(lp483
(I279
I225
g11
tp484
aa(lp485
(I225
I234
g22
tp486
aa(lp487
(I243
I108
g28
tp488
aa(lp489
(I189
I234
g82
tp490
aa(lp491
(I225
I216
g5
tp492
aa(lp493
(I279
I261
g11
tp494
aa(lp495
(I261
I117
g2
tp496
aa(lp497
(I207
I216
g82
tp498
aa(lp499
(I243
I144
g22
tp500
aa(lp501
(I261
I243
g5
tp502
aa(lp503
(I243
I117
g43
tp504
aa(lp505
(I279
I108
g28
tp506
aa(lp507
(I279
I72
g5
tp508
aa(lp509
(I243
I90
g25
tp510
aa(lp511
(I207
I99
g25
tp512
aa(lp513
(I279
I135
g46
tp514
aa(lp515
(I279
I126
g82
tp516
aa(lp517
(I225
I126
g40
tp518
aa(lp519
(I261
I144
g25
tp520
aa(lp521
(I225
I99
g2
tp522
aa(lp523
(I189
I72
g34
tp524
aa(lp525
(I243
I144
g99
tp526
aa(lp527
(I171
I261
g22
tp528
aa(lp529
(I207
I261
g8
tp530
aa(lp531
(I279
I90
g87
tp532
aa(lp533
(I243
I99
g11
tp534
aa(lp535
(I171
I153
g31
tp536
aa(lp537
(I243
I72
g160
tp538
aa(lp539
(I189
I126
g64
tp540
aa(lp541
(I189
I126
g53
tp542
aa(lp543
(I279
I171
g34
tp544
aa(lp545
(I279
I207
g34
tp546
aa(lp547
(I207
I234
g37
tp548
aa(lp549
(I189
I216
g79
tp550
aa(lp551
(I207
I216
g31
tp552
aa(lp553
(I207
I243
g40
tp554
aa(lp555
(I261
I180
g46
tp556
aa(lp557
(I225
I252
g5
tp558
aa(lp559
(I279
I270
g160
tp560
aa(lp561
(I189
I81
g37
tp562
aa(lp563
(I261
I207
g229
tp564
aa(lp565
(I261
I198
g8
tp566
aa(lp567
(I225
I234
g94
tp568
aa(lp569
(I207
I108
g5
tp570
aa(lp571
(I207
I180
g46
tp572
aa(lp573
(I243
I252
g64
tp574
aa(lp575
(I279
I225
g40
tp576
aa(lp577
(I279
I144
g34
tp578
aa(lp579
(I207
I108
g19
tp580
aa(lp581
(I171
I81
g94
tp582
aa(lp583
(I225
I126
g94
tp584
aa(lp585
(I189
I144
g87
tp586
aa(lp587
(I207
I189
g87
tp588
aa(lp589
(I171
I144
g25
tp590
aa(lp591
(I225
I234
g19
tp592
aa(lp593
(I243
I252
g19
tp594
aa(lp595
(I189
I72
g5
tp596
aa(lp597
(I207
I108
g8
tp598
aa(lp599
(I261
I117
g31
tp600
aa(lp601
(I243
I81
g25
tp602
aa(lp603
(I261
I171
g40
tp604
aa(lp605
(I189
I234
g14
tp606
aa(lp607
(I225
I180
g5
tp608
aa(lp609
(I279
I144
g64
tp610
aa(lp611
(I207
I126
g94
tp612
aa(lp613
(I225
I90
g53
tp614
aa(lp615
(I243
I90
g82
tp616
aa(lp617
(I279
I207
g229
tp618
aa(lp619
(I171
I234
g28
tp620
aa(lp621
(I279
I180
g99
tp622
aa(lp623
(I171
I153
g43
tp624
aa(lp625
(I279
I225
g22
tp626
aa(lp627
(I243
I243
g19
tp628
aa(lp629
(I243
I99
g28
tp630
aa(lp631
(I207
I72
g61
tp632
aa(lp633
(I207
I216
g14
tp634
aa(lp635
(I171
I162
g37
tp636
aa(lp637
(I279
I180
g58
tp638
aa(lp639
(I279
I189
g99
tp640
aa(lp641
(I207
I171
g25
tp642
aa(lp643
(I243
I261
g31
tp644
aa(lp645
(I225
I180
g22
tp646
aa(lp647
(I207
I189
g5
tp648
aa(lp649
(I279
I216
g94
tp650
aa(lp651
(I189
I171
g46
tp652
aa(lp653
(I279
I153
g99
tp654
aa(lp655
(I171
I126
g5
tp656
aa(lp657
(I279
I81
g19
tp658
aa(lp659
(I279
I153
g79
tp660
aa(lp661
(I207
I216
g94
tp662
aa(lp663
(I225
I261
g160
tp664
aa(lp665
(I207
I261
g160
tp666
aa(lp667
(I225
I99
g46
tp668
aa(lp669
(I243
I99
g11
tp670
aa(lp671
(I207
I90
g82
tp672
aa(lp673
(I207
I90
g87
tp674
aa(lp675
(I189
I261
g40
tp676
aa(lp677
(I225
I252
g34
tp678
aa(lp679
(I207
I72
g8
tp680
aa(lp681
(I279
I198
g34
tp682
aa(lp683
(I189
I126
g11
tp684
aa(lp685
(I171
I72
g87
tp686
aa(lp687
(I225
I189
g5
tp688
aa(lp689
(I207
I153
g19
tp690
aa(lp691
(I243
I135
g28
tp692
aa(lp693
(I207
I270
g79
tp694
aa(lp695
(I207
I81
g11
tp696
aa(lp697
(I225
I126
g46
tp698
aa(lp699
(I225
I252
g79
tp700
aa(lp701
(I171
I180
g14
tp702
aa(lp703
(I261
I162
g19
tp704
aa(lp705
(I279
I180
g99
tp706
aa(lp707
(I207
I180
g5
tp708
aa(lp709
(I243
I216
g2
tp710
aa(lp711
(I243
I135
g19
tp712
aa(lp713
(I225
I216
g22
tp714
aa(lp715
(I225
I99
g229
tp716
aa(lp717
(I279
I216
g160
tp718
aa(lp719
(I243
I162
g46
tp720
aa(lp721
(I189
I162
g34
tp722
aa(lp723
(I261
I234
g46
tp724
aa(lp725
(I207
I153
g53
tp726
aa(lp727
(I279
I108
g61
tp728
aa(lp729
(I207
I189
g82
tp730
aa(lp731
(I171
I198
g37
tp732
aa(lp733
(I279
I261
g25
tp734
aa(lp735
(I171
I144
g46
tp736
aa(lp737
(I225
I72
g79
tp738
aa(lp739
(I243
I108
g99
tp740
aa(lp741
(I225
I99
g2
tp742
aa(lp743
(I279
I90
g82
tp744
aa(lp745
(I225
I99
g99
tp746
aa(lp747
(I171
I207
g11
tp748
aa(lp749
(I279
I81
g82
tp750
aa(lp751
(I279
I216
g5
tp752
aa(lp753
(I261
I99
g8
tp754
aa(lp755
(I243
I117
g31
tp756
aa(lp757
(I189
I108
g82
tp758
aa(lp759
(I279
I144
g79
tp760
aa(lp761
(I189
I72
g87
tp762
aa(lp763
(I261
I162
g160
tp764
aa(lp765
(I225
I126
g43
tp766
aa(lp767
(I207
I117
g5
tp768
aa(lp769
(I189
I162
g87
tp770
aa(lp771
(I261
I189
g160
tp772
aa(lp773
(I225
I162
g79
tp774
aa(lp775
(I207
I135
g5
tp776
aa(lp777
(I189
I72
g22
tp778
aa(lp779
(I171
I72
g79
tp780
aa(lp781
(I189
I234
g64
tp782
aa(lp783
(I243
I180
g28
tp784
aa(lp785
(I243
I180
g87
tp786
aa(lp787
(I279
I126
g37
tp788
aa(lp789
(I225
I153
g58
tp790
aa(lp791
(I243
I162
g19
tp792
aa(lp793
(I279
I81
g2
tp794
aa(lp795
(I279
I126
g8
tp796
aa(lp797
(I243
I252
g82
tp798
aa(lp799
(I243
I81
g160
tp800
aa(lp801
(I243
I234
g14
tp802
aa(lp803
(I189
I261
g46
tp804
aa(lp805
(I279
I180
g19
tp806
aa(lp807
(I279
I81
g11
tp808
aa(lp809
(I261
I72
g79
tp810
aa(lp811
(I279
I216
g28
tp812
aa(lp813
(I243
I162
g99
tp814
aa(lp815
(I225
I207
g43
tp816
aa(lp817
(I279
I189
g53
tp818
aa(lp819
(I171
I162
g87
tp820
aa(lp821
(I207
I189
g5
tp822
aa(lp823
(I189
I126
g25
tp824
aa(lp825
(I207
I225
g40
tp826
aa(lp827
(I405
I135
g160
tp828
aa(lp829
(I351
I252
g34
tp830
aa(lp831
(I405
I171
g11
tp832
aa(lp833
(I423
I135
g99
tp834
aa(lp835
(I351
I144
g14
tp836
aa(lp837
(I351
I234
g61
tp838
aa(lp839
(I315
I153
g46
tp840
aa(lp841
(I369
I261
g5
tp842
aa(lp843
(I387
I117
g87
tp844
aa(lp845
(I423
I81
g94
tp846
aa(lp847
(I387
I225
g31
tp848
aa(lp849
(I387
I153
g99
tp850
aa(lp851
(I369
I261
g53
tp852
aa(lp853
(I423
I171
g5
tp854
aa(lp855
(I315
I90
g31
tp856
aa(lp857
(I369
I81
g53
tp858
aa(lp859
(I423
I243
g64
tp860
aa(lp861
(I333
I234
g8
tp862
aa(lp863
(I387
I99
g11
tp864
aa(lp865
(I333
I198
g43
tp866
aa(lp867
(I405
I252
g82
tp868
aa(lp869
(I387
I108
g82
tp870
aa(lp871
(I423
I225
g79
tp872
aa(lp873
(I405
I207
g87
tp874
aa(lp875
(I351
I162
g8
tp876
aa(lp877
(I351
I90
g34
tp878
aa(lp879
(I351
I270
g82
tp880
aa(lp881
(I423
I261
g5
tp882
aa(lp883
(I351
I198
g43
tp884
aa(lp885
(I333
I180
g53
tp886
aa(lp887
(I315
I117
g2
tp888
aa(lp889
(I333
I243
g5
tp890
aa(lp891
(I423
I198
g53
tp892
aa(lp893
(I369
I99
g64
tp894
aa(lp895
(I405
I180
g25
tp896
aa(lp897
(I351
I225
g14
tp898
aa(lp899
(I351
I270
g8
tp900
aa(lp901
(I405
I72
g58
tp902
aa(lp903
(I333
I270
g53
tp904
aa(lp905
(I351
I243
g28
tp906
aa(lp907
(I315
I198
g34
tp908
aa(lp909
(I333
I261
g87
tp910
aa(lp911
(I315
I243
g87
tp912
aa(lp913
(I369
I153
g94
tp914
aa(lp915
(I387
I81
g31
tp916
aa(lp917
(I351
I189
g8
tp918
aa(lp919
(I315
I99
g82
tp920
aa(lp921
(I333
I270
g19
tp922
aa(lp923
(I333
I171
g64
tp924
aa(lp925
(I387
I180
g11
tp926
aa(lp927
(I315
I243
g14
tp928
aa(lp929
(I423
I153
g82
tp930
aa(lp931
(I423
I234
g94
tp932
aa(lp933
(I405
I171
g8
tp934
aa(lp935
(I351
I252
g82
tp936
aa(lp937
(I423
I162
g53
tp938
aa(lp939
(I351
I270
g11
tp940
aa(lp941
(I315
I162
g8
tp942
aa(lp943
(I351
I189
g94
tp944
aa(lp945
(I333
I270
g160
tp946
aa(lp947
(I315
I99
g61
tp948
aa(lp949
(I369
I153
g22
tp950
aa(lp951
(I423
I207
g19
tp952
aa(lp953
(I405
I261
g2
tp954
aa(lp955
(I423
I207
g160
tp956
aa(lp957
(I423
I144
g160
tp958
aa(lp959
(I333
I135
g34
tp960
aa(lp961
(I315
I225
g61
tp962
aa(lp963
(I351
I126
g40
tp964
aa(lp965
(I351
I207
g87
tp966
aa(lp967
(I405
I189
g64
tp968
aa(lp969
(I369
I72
g43
tp970
aa(lp971
(I369
I153
g40
tp972
aa(lp973
(I369
I144
g2
tp974
aa(lp975
(I369
I117
g94
tp976
aa(lp977
(I387
I225
g82
tp978
aa(lp979
(I315
I144
g43
tp980
aa(lp981
(I315
I225
g94
tp982
aa(lp983
(I351
I207
g25
tp984
aa(lp985
(I315
I144
g31
tp986
aa(lp987
(I387
I153
g34
tp988
aa(lp989
(I333
I72
g99
tp990
aa(lp991
(I333
I162
g160
tp992
aa(lp993
(I405
I270
g87
tp994
aa(lp995
(I423
I108
g87
tp996
aa(lp997
(I423
I189
g99
tp998
aa(lp999
(I405
I216
g46
tp1000
aa(lp1001
(I423
I252
g160
tp1002
aa(lp1003
(I405
I207
g40
tp1004
aa(lp1005
(I405
I81
g11
tp1006
aa(lp1007
(I333
I153
g99
tp1008
aa(lp1009
(I351
I234
g5
tp1010
aa(lp1011
(I369
I144
g5
tp1012
aa(lp1013
(I405
I117
g34
tp1014
aa(lp1015
(I351
I117
g229
tp1016
aa(lp1017
(I387
I126
g31
tp1018
aa(lp1019
(I387
I117
g61
tp1020
aa(lp1021
(I423
I90
g40
tp1022
aa(lp1023
(I423
I234
g19
tp1024
aa(lp1025
(I333
I189
g34
tp1026
aa(lp1027
(I333
I162
g94
tp1028
aa(lp1029
(I351
I225
g94
tp1030
aa(lp1031
(I351
I180
g53
tp1032
aa(lp1033
(I315
I117
g25
tp1034
aa(lp1035
(I423
I207
g79
tp1036
aa(lp1037
(I423
I207
g40
tp1038
aa(lp1039
(I387
I171
g2
tp1040
aa(lp1041
(I405
I198
g82
tp1042
aa(lp1043
(I405
I162
g43
tp1044
aa(lp1045
(I423
I243
g34
tp1046
aa(lp1047
(I315
I207
g8
tp1048
aa(lp1049
(I351
I261
g87
tp1050
aa(lp1051
(I423
I117
g11
tp1052
aa(lp1053
(I423
I144
g22
tp1054
aa(lp1055
(I315
I81
g2
tp1056
aa(lp1057
(I315
I144
g2
tp1058
aa(lp1059
(I369
I234
g34
tp1060
aa(lp1061
(I351
I198
g28
tp1062
aa(lp1063
(I315
I108
g94
tp1064
aa(lp1065
(I405
I135
g53
tp1066
aa(lp1067
(I333
I99
g8
tp1068
aa(lp1069
(I351
I243
g58
tp1070
aa(lp1071
(I333
I72
g28
tp1072
aa(lp1073
(I333
I243
g58
tp1074
aa(lp1075
(I333
I144
g229
tp1076
aa(lp1077
(I369
I225
g14
tp1078
aa(lp1079
(I405
I261
g8
tp1080
aa(lp1081
(I315
I153
g160
tp1082
aa(lp1083
(I369
I270
g19
tp1084
aa(lp1085
(I423
I162
g40
tp1086
aa(lp1087
(I405
I234
g99
tp1088
aa(lp1089
(I315
I144
g64
tp1090
aa(lp1091
(I387
I171
g28
tp1092
aa(lp1093
(I387
I117
g34
tp1094
aa(lp1095
(I387
I162
g79
tp1096
aa(lp1097
(I423
I207
g53
tp1098
aa(lp1099
(I387
I99
g8
tp1100
aa(lp1101
(I405
I243
g99
tp1102
aa(lp1103
(I387
I180
g22
tp1104
aa(lp1105
(I387
I117
g11
tp1106
aa(lp1107
(I351
I180
g58
tp1108
aa(lp1109
(I423
I216
g64
tp1110
aa(lp1111
(I333
I153
g53
tp1112
aa(lp1113
(I351
I225
g14
tp1114
aa(lp1115
(I333
I243
g43
tp1116
aa(lp1117
(I315
I270
g229
tp1118
aa(lp1119
(I405
I261
g43
tp1120
aa(lp1121
(I423
I144
g160
tp1122
aa(lp1123
(I351
I270
g8
tp1124
aa(lp1125
(I369
I225
g19
tp1126
aa(lp1127
(I423
I180
g8
tp1128
aa(lp1129
(I423
I261
g34
tp1130
aa(lp1131
(I333
I189
g160
tp1132
aa(lp1133
(I423
I216
g58
tp1134
aa(lp1135
(I423
I162
g82
tp1136
aa(lp1137
(I351
I72
g19
tp1138
aa(lp1139
(I315
I162
g31
tp1140
aa(lp1141
(I405
I243
g46
tp1142
aa(lp1143
(I351
I126
g25
tp1144
aa(lp1145
(I423
I162
g79
tp1146
aa(lp1147
(I315
I216
g28
tp1148
aa(lp1149
(I423
I270
g53
tp1150
aa(lp1151
(I333
I261
g53
tp1152
aa(lp1153
(I423
I144
g5
tp1154
aa(lp1155
(I333
I243
g19
tp1156
aa(lp1157
(I315
I117
g28
tp1158
aa(lp1159
(I315
I180
g87
tp1160
aa(lp1161
(I351
I162
g37
tp1162
aa(lp1163
(I351
I153
g19
tp1164
aa(lp1165
(I423
I108
g2
tp1166
aa(lp1167
(I369
I207
g229
tp1168
aa(lp1169
(I351
I153
g94
tp1170
aa(lp1171
(I423
I99
g40
tp1172
aa(lp1173
(I405
I99
g229
tp1174
aa(lp1175
(I369
I90
g40
tp1176
aa(lp1177
(I423
I117
g2
tp1178
aa(lp1179
(I369
I270
g2
tp1180
aa(lp1181
(I315
I198
g34
tp1182
aa(lp1183
(I423
I234
g8
tp1184
aa(lp1185
(I333
I135
g2
tp1186
aa(lp1187
(I351
I198
g11
tp1188
aa(lp1189
(I315
I72
g25
tp1190
aa(lp1191
(I333
I207
g99
tp1192
aa(lp1193
(I423
I90
g53
tp1194
aa(lp1195
(I369
I270
g2
tp1196
aa(lp1197
(I405
I198
g53
tp1198
aa(lp1199
(I333
I81
g25
tp1200
aa(lp1201
(I387
I126
g53
tp1202
aa(lp1203
(I387
I234
g28
tp1204
aa(lp1205
(I333
I126
g19
tp1206
aa(lp1207
(I423
I162
g53
tp1208
aa(lp1209
(I315
I135
g87
tp1210
aa(lp1211
(I387
I171
g11
tp1212
aa(lp1213
(I333
I270
g34
tp1214
aa(lp1215
(I387
I189
g160
tp1216
aa(lp1217
(I315
I225
g160
tp1218
aa(lp1219
(I423
I180
g46
tp1220
aa(lp1221
(I369
I126
g58
tp1222
aa(lp1223
(I369
I171
g37
tp1224
aa(lp1225
(I315
I243
g14
tp1226
aa(lp1227
(I567
I72
g61
tp1228
aa(lp1229
(I477
I225
g229
tp1230
aa(lp1231
(I477
I117
g11
tp1232
aa(lp1233
(I567
I81
g8
tp1234
aa(lp1235
(I567
I117
g99
tp1236
aa(lp1237
(I495
I261
g87
tp1238
aa(lp1239
(I549
I90
g229
tp1240
aa(lp1241
(I567
I108
g31
tp1242
aa(lp1243
(I477
I270
g22
tp1244
aa(lp1245
(I549
I270
g40
tp1246
aa(lp1247
(I513
I171
g8
tp1248
aa(lp1249
(I477
I225
g229
tp1250
aa(lp1251
(I531
I225
g79
tp1252
aa(lp1253
(I549
I162
g31
tp1254
aa(lp1255
(I477
I180
g40
tp1256
aa(lp1257
(I495
I189
g229
tp1258
aa(lp1259
(I495
I153
g25
tp1260
aa(lp1261
(I549
I153
g229
tp1262
aa(lp1263
(I495
I207
g11
tp1264
aa(lp1265
(I477
I108
g11
tp1266
aa(lp1267
(I459
I252
g160
tp1268
aa(lp1269
(I531
I153
g64
tp1270
aa(lp1271
(I459
I126
g53
tp1272
aa(lp1273
(I495
I261
g37
tp1274
aa(lp1275
(I513
I99
g5
tp1276
aa(lp1277
(I495
I99
g160
tp1278
aa(lp1279
(I531
I225
g31
tp1280
aa(lp1281
(I495
I207
g229
tp1282
aa(lp1283
(I459
I144
g46
tp1284
aa(lp1285
(I549
I261
g22
tp1286
aa(lp1287
(I495
I81
g58
tp1288
aa(lp1289
(I549
I162
g8
tp1290
aa(lp1291
(I513
I90
g43
tp1292
aa(lp1293
(I477
I90
g5
tp1294
aa(lp1295
(I549
I90
g11
tp1296
aa(lp1297
(I549
I216
g61
tp1298
aa(lp1299
(I531
I270
g82
tp1300
aa(lp1301
(I531
I216
g82
tp1302
aa(lp1303
(I459
I243
g43
tp1304
aa(lp1305
(I477
I207
g19
tp1306
aa(lp1307
(I531
I180
g40
tp1308
aa(lp1309
(I567
I261
g87
tp1310
aa(lp1311
(I549
I207
g53
tp1312
aa(lp1313
(I531
I180
g22
tp1314
aa(lp1315
(I513
I180
g22
tp1316
aa(lp1317
(I531
I234
g31
tp1318
aa(lp1319
(I495
I207
g37
tp1320
aa(lp1321
(I477
I198
g46
tp1322
aa(lp1323
(I495
I207
g64
tp1324
aa(lp1325
(I549
I207
g31
tp1326
aa(lp1327
(I477
I135
g34
tp1328
aa(lp1329
(I477
I117
g46
tp1330
aa(lp1331
(I513
I81
g99
tp1332
aa(lp1333
(I495
I99
g25
tp1334
aa(lp1335
(I495
I126
g5
tp1336
aa(lp1337
(I495
I135
g19
tp1338
aa(lp1339
(I495
I207
g58
tp1340
aa(lp1341
(I549
I90
g40
tp1342
aa(lp1343
(I549
I225
g37
tp1344
aa(lp1345
(I567
I198
g2
tp1346
aa(lp1347
(I459
I189
g82
tp1348
aa(lp1349
(I495
I243
g34
tp1350
aa(lp1351
(I531
I90
g22
tp1352
aa(lp1353
(I513
I252
g64
tp1354
aa(lp1355
(I477
I270
g11
tp1356
aa(lp1357
(I495
I135
g94
tp1358
aa(lp1359
(I513
I198
g8
tp1360
aa(lp1361
(I531
I234
g5
tp1362
aa(lp1363
(I567
I198
g5
tp1364
aa(lp1365
(I459
I81
g94
tp1366
aa(lp1367
(I477
I207
g5
tp1368
aa(lp1369
(I495
I198
g61
tp1370
aa(lp1371
(I531
I108
g46
tp1372
aa(lp1373
(I495
I72
g28
tp1374
aa(lp1375
(I495
I180
g19
tp1376
aa(lp1377
(I513
I72
g43
tp1378
aa(lp1379
(I513
I144
g11
tp1380
aa(lp1381
(I477
I117
g160
tp1382
aa(lp1383
(I477
I72
g79
tp1384
aa(lp1385
(I477
I243
g37
tp1386
aa(lp1387
(I531
I117
g87
tp1388
aa(lp1389
(I531
I252
g14
tp1390
aa(lp1391
(I495
I171
g64
tp1392
aa(lp1393
(I567
I171
g43
tp1394
aa(lp1395
(I477
I270
g2
tp1396
aa(lp1397
(I459
I81
g28
tp1398
aa(lp1399
(I513
I144
g37
tp1400
aa(lp1401
(I567
I270
g37
tp1402
aa(lp1403
(I513
I117
g25
tp1404
aa(lp1405
(I549
I180
g11
tp1406
aa(lp1407
(I477
I216
g5
tp1408
aa(lp1409
(I567
I216
g160
tp1410
aa(lp1411
(I459
I198
g82
tp1412
aa(lp1413
(I495
I198
g2
tp1414
aa(lp1415
(I495
I261
g14
tp1416
aa(lp1417
(I513
I135
g87
tp1418
aa(lp1419
(I513
I252
g31
tp1420
aa(lp1421
(I549
I252
g8
tp1422
aa(lp1423
(I459
I171
g160
tp1424
aa(lp1425
(I513
I162
g14
tp1426
aa(lp1427
(I459
I135
g229
tp1428
aa(lp1429
(I459
I108
g25
tp1430
aa(lp1431
(I513
I162
g31
tp1432
aa(lp1433
(I513
I72
g94
tp1434
aa(lp1435
(I495
I261
g82
tp1436
aa(lp1437
(I513
I108
g64
tp1438
aa(lp1439
(I495
I72
g58
tp1440
aa(lp1441
(I459
I234
g87
tp1442
aa(lp1443
(I549
I270
g94
tp1444
aa(lp1445
(I531
I171
g99
tp1446
aa(lp1447
(I495
I216
g31
tp1448
aa(lp1449
(I495
I180
g14
tp1450
aa(lp1451
(I549
I225
g37
tp1452
aa(lp1453
(I477
I135
g8
tp1454
aa(lp1455
(I477
I108
g28
tp1456
aa(lp1457
(I495
I144
g61
tp1458
aa(lp1459
(I459
I207
g82
tp1460
aa(lp1461
(I459
I252
g19
tp1462
aa(lp1463
(I567
I261
g99
tp1464
aa(lp1465
(I549
I243
g40
tp1466
aa(lp1467
(I513
I270
g37
tp1468
aa(lp1469
(I459
I252
g40
tp1470
aa(lp1471
(I531
I225
g87
tp1472
aa(lp1473
(I477
I72
g2
tp1474
aa(lp1475
(I513
I171
g8
tp1476
aa(lp1477
(I513
I225
g79
tp1478
aa(lp1479
(I459
I72
g79
tp1480
aa(lp1481
(I495
I117
g2
tp1482
aa(lp1483
(I531
I216
g2
tp1484
aa(lp1485
(I567
I261
g40
tp1486
aa(lp1487
(I477
I189
g99
tp1488
aa(lp1489
(I531
I90
g160
tp1490
aa(lp1491
(I477
I99
g28
tp1492
aa(lp1493
(I459
I198
g160
tp1494
aa(lp1495
(I495
I252
g14
tp1496
aa(lp1497
(I513
I153
g28
tp1498
aa(lp1499
(I513
I270
g160
tp1500
aa(lp1501
(I459
I108
g22
tp1502
aa(lp1503
(I513
I108
g11
tp1504
aa(lp1505
(I495
I72
g31
tp1506
aa(lp1507
(I495
I198
g22
tp1508
aa(lp1509
(I567
I108
g160
tp1510
aa(lp1511
(I513
I189
g5
tp1512
aa(lp1513
(I567
I261
g2
tp1514
aa(lp1515
(I495
I153
g46
tp1516
aa(lp1517
(I495
I90
g40
tp1518
aa(lp1519
(I495
I252
g8
tp1520
aa(lp1521
(I513
I189
g160
tp1522
aa(lp1523
(I513
I243
g160
tp1524
aa(lp1525
(I459
I171
g53
tp1526
aa(lp1527
(I549
I153
g99
tp1528
aa(lp1529
(I567
I117
g2
tp1530
aa(lp1531
(I495
I234
g14
tp1532
aa(lp1533
(I495
I99
g40
tp1534
aa(lp1535
(I477
I261
g5
tp1536
aa(lp1537
(I459
I198
g229
tp1538
aa(lp1539
(I495
I261
g40
tp1540
aa(lp1541
(I567
I117
g11
tp1542
aa(lp1543
(I477
I261
g82
tp1544
aa(lp1545
(I531
I99
g53
tp1546
aa(lp1547
(I549
I180
g160
tp1548
aa(lp1549
(I495
I171
g82
tp1550
aa(lp1551
(I459
I261
g28
tp1552
aa(lp1553
(I531
I216
g40
tp1554
aa(lp1555
(I477
I153
g22
tp1556
aa(lp1557
(I495
I243
g2
tp1558
aa(lp1559
(I531
I198
g61
tp1560
aa(lp1561
(I477
I81
g19
tp1562
aa(lp1563
(I513
I108
g229
tp1564
aa(lp1565
(I531
I171
g99
tp1566
aa(lp1567
(I513
I198
g19
tp1568
aa(lp1569
(I459
I144
g19
tp1570
aa(lp1571
(I477
I207
g94
tp1572
aa(lp1573
(I531
I81
g87
tp1574
aa(lp1575
(I513
I252
g160
tp1576
aa(lp1577
(I549
I117
g87
tp1578
aa(lp1579
(I567
I117
g53
tp1580
aa(lp1581
(I495
I117
g40
tp1582
aa(lp1583
(I477
I162
g8
tp1584
aa(lp1585
(I477
I162
g11
tp1586
aa(lp1587
(I513
I189
g160
tp1588
aa(lp1589
(I495
I243
g82
tp1590
aa(lp1591
(I549
I99
g64
tp1592
aa(lp1593
(I459
I180
g160
tp1594
aa(lp1595
(I513
I72
g64
tp1596
aa(lp1597
(I567
I135
g28
tp1598
aa(lp1599
(I513
I270
g34
tp1600
aa(lp1601
(I495
I216
g79
tp1602
aa(lp1603
(I531
I99
g2
tp1604
aa(lp1605
(I567
I117
g14
tp1606
aa(lp1607
(I531
I135
g19
tp1608
aa(lp1609
(I531
I108
g34
tp1610
aa(lp1611
(I567
I225
g87
tp1612
aa(lp1613
(I477
I252
g61
tp1614
aa(lp1615
(I459
I144
g82
tp1616
aa(lp1617
(I459
I189
g14
tp1618
aa(lp1619
(I513
I261
g8
tp1620
aa(lp1621
(I495
I207
g82
tp1622
aa(lp1623
(I531
I252
g28
tp1624
aa(lp1625
(I513
I90
g82
tp1626
aa(lp1627
(I621
I270
g5
tp1628
aa(lp1629
(I711
I189
g2
tp1630
aa(lp1631
(I657
I189
g2
tp1632
aa(lp1633
(I693
I117
g19
tp1634
aa(lp1635
(I621
I189
g8
tp1636
aa(lp1637
(I657
I270
g5
tp1638
aa(lp1639
(I693
I270
g160
tp1640
aa(lp1641
(I621
I207
g87
tp1642
aa(lp1643
(I657
I90
g19
tp1644
aa(lp1645
(I603
I162
g34
tp1646
aa(lp1647
(I675
I225
g229
tp1648
aa(lp1649
(I621
I126
g79
tp1650
aa(lp1651
(I657
I234
g61
tp1652
aa(lp1653
(I621
I189
g14
tp1654
aa(lp1655
(I693
I261
g94
tp1656
aa(lp1657
(I603
I135
g87
tp1658
aa(lp1659
(I693
I252
g37
tp1660
aa(lp1661
(I693
I207
g94
tp1662
aa(lp1663
(I675
I135
g99
tp1664
aa(lp1665
(I639
I162
g5
tp1666
aa(lp1667
(I693
I135
g2
tp1668
aa(lp1669
(I711
I270
g160
tp1670
aa(lp1671
(I711
I180
g43
tp1672
aa(lp1673
(I711
I243
g64
tp1674
aa(lp1675
(I711
I216
g5
tp1676
aa(lp1677
(I639
I135
g22
tp1678
aa(lp1679
(I657
I153
g61
tp1680
aa(lp1681
(I711
I81
g25
tp1682
aa(lp1683
(I621
I207
g8
tp1684
aa(lp1685
(I675
I234
g25
tp1686
aa(lp1687
(I675
I153
g8
tp1688
aa(lp1689
(I675
I81
g28
tp1690
aa(lp1691
(I639
I144
g99
tp1692
aa(lp1693
(I675
I207
g46
tp1694
aa(lp1695
(I603
I144
g31
tp1696
aa(lp1697
(I711
I270
g40
tp1698
aa(lp1699
(I603
I207
g99
tp1700
aa(lp1701
(I603
I261
g22
tp1702
aa(lp1703
(I693
I135
g94
tp1704
aa(lp1705
(I639
I171
g40
tp1706
aa(lp1707
(I603
I243
g40
tp1708
aa(lp1709
(I693
I243
g53
tp1710
aa(lp1711
(I603
I135
g14
tp1712
aa(lp1713
(I639
I207
g43
tp1714
aa(lp1715
(I603
I270
g34
tp1716
aa(lp1717
(I693
I99
g58
tp1718
aa(lp1719
(I675
I189
g8
tp1720
aa(lp1721
(I657
I162
g28
tp1722
aa(lp1723
(I657
I225
g43
tp1724
aa(lp1725
(I639
I198
g82
tp1726
aa(lp1727
(I603
I126
g229
tp1728
aa(lp1729
(I657
I189
g94
tp1730
aa(lp1731
(I657
I198
g2
tp1732
aa(lp1733
(I621
I90
g8
tp1734
aa(lp1735
(I621
I207
g53
tp1736
aa(lp1737
(I639
I180
g8
tp1738
aa(lp1739
(I621
I90
g31
tp1740
aa(lp1741
(I621
I216
g64
tp1742
aa(lp1743
(I603
I108
g82
tp1744
aa(lp1745
(I693
I189
g58
tp1746
aa(lp1747
(I639
I216
g160
tp1748
aa(lp1749
(I711
I162
g37
tp1750
aa(lp1751
(I621
I261
g34
tp1752
aa(lp1753
(I657
I81
g14
tp1754
aa(lp1755
(I621
I153
g61
tp1756
aa(lp1757
(I711
I189
g79
tp1758
aa(lp1759
(I621
I252
g87
tp1760
aa(lp1761
(I639
I81
g5
tp1762
aa(lp1763
(I603
I153
g19
tp1764
aa(lp1765
(I711
I216
g31
tp1766
aa(lp1767
(I675
I252
g37
tp1768
aa(lp1769
(I639
I126
g61
tp1770
aa(lp1771
(I657
I99
g94
tp1772
aa(lp1773
(I657
I144
g5
tp1774
aa(lp1775
(I711
I117
g8
tp1776
aa(lp1777
(I657
I144
g87
tp1778
aa(lp1779
(I639
I81
g28
tp1780
aa(lp1781
(I639
I135
g25
tp1782
aa(lp1783
(I675
I252
g19
tp1784
aa(lp1785
(I675
I108
g87
tp1786
aa(lp1787
(I657
I207
g160
tp1788
aa(lp1789
(I603
I270
g40
tp1790
aa(lp1791
(I621
I171
g94
tp1792
aa(lp1793
(I621
I261
g61
tp1794
aa(lp1795
(I675
I117
g99
tp1796
aa(lp1797
(I603
I153
g46
tp1798
aa(lp1799
(I621
I144
g61
tp1800
aa(lp1801
(I621
I180
g61
tp1802
aa(lp1803
(I621
I207
g14
tp1804
aa(lp1805
(I603
I135
g46
tp1806
aa(lp1807
(I675
I162
g22
tp1808
aa(lp1809
(I603
I189
g61
tp1810
aa(lp1811
(I693
I72
g28
tp1812
aa(lp1813
(I711
I162
g46
tp1814
aa(lp1815
(I657
I162
g229
tp1816
aa(lp1817
(I657
I144
g46
tp1818
aa(lp1819
(I711
I126
g79
tp1820
aa(lp1821
(I675
I234
g99
tp1822
aa(lp1823
(I657
I270
g25
tp1824
aa(lp1825
(I675
I216
g8
tp1826
aa(lp1827
(I657
I126
g53
tp1828
aa(lp1829
(I639
I162
g31
tp1830
aa(lp1831
(I603
I162
g2
tp1832
aa(lp1833
(I657
I261
g31
tp1834
aa(lp1835
(I693
I99
g43
tp1836
aa(lp1837
(I693
I216
g25
tp1838
aa(lp1839
(I693
I261
g19
tp1840
aa(lp1841
(I657
I207
g34
tp1842
aa(lp1843
(I603
I198
g2
tp1844
aa(lp1845
(I639
I117
g160
tp1846
aa(lp1847
(I621
I207
g79
tp1848
aa(lp1849
(I621
I108
g229
tp1850
aa(lp1851
(I711
I225
g160
tp1852
aa(lp1853
(I693
I108
g61
tp1854
aa(lp1855
(I639
I207
g87
tp1856
aa(lp1857
(I675
I153
g11
tp1858
aa(lp1859
(I603
I225
g2
tp1860
aa(lp1861
(I693
I243
g31
tp1862
aa(lp1863
(I639
I72
g82
tp1864
aa(lp1865
(I675
I189
g5
tp1866
aa(lp1867
(I621
I180
g8
tp1868
aa(lp1869
(I621
I144
g22
tp1870
aa(lp1871
(I693
I180
g64
tp1872
aa(lp1873
(I711
I270
g58
tp1874
aa(lp1875
(I693
I234
g229
tp1876
aa(lp1877
(I693
I153
g53
tp1878
aa(lp1879
(I621
I180
g82
tp1880
aa(lp1881
(I603
I162
g8
tp1882
aa(lp1883
(I621
I189
g40
tp1884
aa(lp1885
(I711
I72
g82
tp1886
aa(lp1887
(I711
I216
g79
tp1888
aa(lp1889
(I639
I171
g79
tp1890
aa(lp1891
(I711
I234
g79
tp1892
aa(lp1893
(I675
I126
g53
tp1894
aa(lp1895
(I621
I216
g229
tp1896
aa(lp1897
(I711
I99
g58
tp1898
aa(lp1899
(I711
I126
g8
tp1900
aa(lp1901
(I711
I90
g64
tp1902
aa(lp1903
(I603
I90
g34
tp1904
aa(lp1905
(I693
I198
g22
tp1906
aa(lp1907
(I675
I135
g14
tp1908
aa(lp1909
(I657
I225
g43
tp1910
aa(lp1911
(I693
I81
g8
tp1912
aa(lp1913
(I603
I135
g37
tp1914
aa(lp1915
(I711
I72
g46
tp1916
aa(lp1917
(I693
I99
g37
tp1918
aa(lp1919
(I639
I216
g58
tp1920
aa(lp1921
(I675
I225
g229
tp1922
aa(lp1923
(I657
I81
g40
tp1924
aa(lp1925
(I657
I252
g28
tp1926
aa(lp1927
(I657
I162
g79
tp1928
aa(lp1929
(I693
I135
g11
tp1930
aa(lp1931
(I711
I108
g58
tp1932
aa(lp1933
(I711
I243
g61
tp1934
aa(lp1935
(I693
I99
g82
tp1936
aa(lp1937
(I621
I117
g22
tp1938
aa(lp1939
(I693
I72
g2
tp1940
aa(lp1941
(I657
I243
g160
tp1942
aa(lp1943
(I639
I180
g19
tp1944
aa(lp1945
(I693
I207
g46
tp1946
aa(lp1947
(I711
I216
g37
tp1948
aa(lp1949
(I603
I126
g58
tp1950
aa(lp1951
(I675
I198
g79
tp1952
aa(lp1953
(I693
I261
g64
tp1954
aa(lp1955
(I621
I252
g19
tp1956
aa(lp1957
(I657
I117
g79
tp1958
aa(lp1959
(I693
I108
g79
tp1960
aa(lp1961
(I639
I99
g34
tp1962
aa(lp1963
(I657
I162
g14
tp1964
aa(lp1965
(I603
I162
g19
tp1966
aa(lp1967
(I657
I162
g37
tp1968
aa(lp1969
(I603
I270
g37
tp1970
aa(lp1971
(I621
I207
g25
tp1972
aa(lp1973
(I603
I243
g31
tp1974
aa(lp1975
(I711
I72
g79
tp1976
aa(lp1977
(I639
I207
g37
tp1978
aa(lp1979
(I711
I126
g22
tp1980
aa(lp1981
(I603
I252
g160
tp1982
aa(lp1983
(I657
I198
g229
tp1984
aa(lp1985
(I603
I207
g229
tp1986
aa(lp1987
(I657
I99
g22
tp1988
aa(lp1989
(I639
I198
g19
tp1990
aa(lp1991
(I675
I153
g61
tp1992
aa(lp1993
(I621
I162
g25
tp1994
aa(lp1995
(I711
I108
g22
tp1996
aa(lp1997
(I711
I108
g37
tp1998
aa(lp1999
(I603
I261
g40
tp2000
aa(lp2001
(I621
I90
g40
tp2002
aa(lp2003
(I711
I216
g2
tp2004
aa(lp2005
(I675
I171
g43
tp2006
aa(lp2007
(I711
I135
g22
tp2008
aa(lp2009
(I711
I144
g46
tp2010
aa(lp2011
(I657
I162
g19
tp2012
aa(lp2013
(I621
I243
g64
tp2014
aa(lp2015
(I621
I216
g28
tp2016
aa(lp2017
(I621
I180
g31
tp2018
aa(lp2019
(I603
I198
g99
tp2020
aa(lp2021
(I621
I117
g37
tp2022
aa(lp2023
(I693
I144
g61
tp2024
aa(lp2025
(I675
I162
g229
tp2026
aa(lp2027
(I765
I225
g61
tp2028
aa(lp2029
(I801
I108
g229
tp2030
aa(lp2031
(I783
I117
g87
tp2032
aa(lp2033
(I783
I198
g34
tp2034
aa(lp2035
(I801
I171
g25
tp2036
aa(lp2037
(I855
I108
g28
tp2038
aa(lp2039
(I837
I153
g11
tp2040
aa(lp2041
(I765
I99
g94
tp2042
aa(lp2043
(I819
I72
g79
tp2044
aa(lp2045
(I765
I243
g229
tp2046
aa(lp2047
(I765
I198
g37
tp2048
aa(lp2049
(I783
I216
g87
tp2050
aa(lp2051
(I855
I252
g31
tp2052
aa(lp2053
(I765
I261
g58
tp2054
aa(lp2055
(I783
I252
g14
tp2056
aa(lp2057
(I819
I261
g34
tp2058
aa(lp2059
(I837
I117
g34
tp2060
aa(lp2061
(I747
I108
g37
tp2062
aa(lp2063
(I747
I207
g28
tp2064
aa(lp2065
(I747
I90
g53
tp2066
aa(lp2067
(I855
I99
g40
tp2068
aa(lp2069
(I765
I81
g40
tp2070
aa(lp2071
(I837
I189
g53
tp2072
aa(lp2073
(I801
I216
g40
tp2074
aa(lp2075
(I783
I261
g25
tp2076
aa(lp2077
(I783
I162
g31
tp2078
aa(lp2079
(I855
I261
g19
tp2080
aa(lp2081
(I819
I81
g14
tp2082
aa(lp2083
(I765
I144
g31
tp2084
aa(lp2085
(I855
I108
g37
tp2086
aa(lp2087
(I765
I99
g61
tp2088
aa(lp2089
(I801
I243
g11
tp2090
aa(lp2091
(I855
I243
g34
tp2092
aa(lp2093
(I837
I270
g22
tp2094
aa(lp2095
(I747
I135
g22
tp2096
aa(lp2097
(I855
I117
g43
tp2098
aa(lp2099
(I837
I243
g61
tp2100
aa(lp2101
(I801
I90
g160
tp2102
aa(lp2103
(I747
I135
g5
tp2104
aa(lp2105
(I765
I234
g34
tp2106
aa(lp2107
(I837
I198
g64
tp2108
aa(lp2109
(I747
I216
g19
tp2110
aa(lp2111
(I783
I162
g43
tp2112
aa(lp2113
(I801
I144
g79
tp2114
aa(lp2115
(I783
I108
g61
tp2116
aa(lp2117
(I855
I198
g58
tp2118
aa(lp2119
(I819
I135
g22
tp2120
aa(lp2121
(I765
I243
g61
tp2122
aa(lp2123
(I837
I270
g22
tp2124
aa(lp2125
(I783
I207
g94
tp2126
aa(lp2127
(I801
I171
g53
tp2128
aa(lp2129
(I837
I90
g34
tp2130
aa(lp2131
(I765
I162
g87
tp2132
aa(lp2133
(I837
I243
g61
tp2134
aa(lp2135
(I819
I216
g58
tp2136
aa(lp2137
(I783
I225
g58
tp2138
aa(lp2139
(I765
I162
g28
tp2140
aa(lp2141
(I783
I108
g64
tp2142
aa(lp2143
(I765
I207
g22
tp2144
aa(lp2145
(I747
I153
g14
tp2146
aa(lp2147
(I801
I144
g53
tp2148
aa(lp2149
(I747
I225
g5
tp2150
aa(lp2151
(I801
I72
g99
tp2152
aa(lp2153
(I819
I261
g34
tp2154
aa(lp2155
(I819
I99
g34
tp2156
aa(lp2157
(I855
I243
g31
tp2158
aa(lp2159
(I783
I198
g94
tp2160
aa(lp2161
(I819
I207
g46
tp2162
aa(lp2163
(I801
I90
g46
tp2164
aa(lp2165
(I855
I252
g37
tp2166
aa(lp2167
(I783
I189
g14
tp2168
aa(lp2169
(I765
I144
g31
tp2170
aa(lp2171
(I783
I171
g229
tp2172
aa(lp2173
(I747
I72
g229
tp2174
aa(lp2175
(I765
I135
g58
tp2176
aa(lp2177
(I819
I243
g61
tp2178
aa(lp2179
(I747
I180
g61
tp2180
aa(lp2181
(I801
I162
g46
tp2182
aa(lp2183
(I783
I171
g58
tp2184
aa(lp2185
(I855
I270
g87
tp2186
aa(lp2187
(I747
I144
g37
tp2188
aa(lp2189
(I819
I99
g160
tp2190
aa(lp2191
(I837
I261
g37
tp2192
aa(lp2193
(I819
I72
g82
tp2194
aa(lp2195
(I783
I252
g160
tp2196
aa(lp2197
(I747
I270
g160
tp2198
aa(lp2199
(I783
I243
g14
tp2200
aa(lp2201
(I783
I261
g64
tp2202
aa(lp2203
(I837
I270
g64
tp2204
aa(lp2205
(I765
I108
g229
tp2206
aa(lp2207
(I855
I261
g19
tp2208
aa(lp2209
(I837
I171
g79
tp2210
aa(lp2211
(I837
I126
g229
tp2212
aa(lp2213
(I855
I261
g2
tp2214
aa(lp2215
(I837
I243
g5
tp2216
aa(lp2217
(I783
I81
g79
tp2218
aa(lp2219
(I801
I189
g160
tp2220
aa(lp2221
(I765
I144
g40
tp2222
aa(lp2223
(I765
I117
g37
tp2224
aa(lp2225
(I837
I180
g99
tp2226
aa(lp2227
(I819
I270
g43
tp2228
aa(lp2229
(I783
I99
g94
tp2230
aa(lp2231
(I801
I261
g82
tp2232
aa(lp2233
(I801
I144
g2
tp2234
aa(lp2235
(I819
I216
g2
tp2236
aa(lp2237
(I783
I108
g8
tp2238
aa(lp2239
(I837
I117
g79
tp2240
aa(lp2241
(I819
I117
g61
tp2242
aa(lp2243
(I747
I135
g82
tp2244
aa(lp2245
(I765
I72
g40
tp2246
aa(lp2247
(I747
I99
g2
tp2248
aa(lp2249
(I837
I108
g53
tp2250
aa(lp2251
(I801
I162
g58
tp2252
aa(lp2253
(I801
I144
g11
tp2254
aa(lp2255
(I855
I225
g53
tp2256
aa(lp2257
(I747
I207
g79
tp2258
aa(lp2259
(I837
I99
g40
tp2260
aa(lp2261
(I837
I216
g34
tp2262
aa(lp2263
(I801
I243
g37
tp2264
aa(lp2265
(I855
I99
g31
tp2266
aa(lp2267
(I837
I171
g8
tp2268
aa(lp2269
(I837
I252
g64
tp2270
aa(lp2271
(I747
I252
g11
tp2272
aa(lp2273
(I747
I90
g87
tp2274
aa(lp2275
(I801
I171
g53
tp2276
aa(lp2277
(I783
I153
g64
tp2278
aa(lp2279
(I855
I72
g79
tp2280
aa(lp2281
(I765
I108
g37
tp2282
aa(lp2283
(I747
I234
g58
tp2284
aa(lp2285
(I837
I108
g11
tp2286
aa(lp2287
(I801
I252
g99
tp2288
aa(lp2289
(I783
I144
g25
tp2290
aa(lp2291
(I819
I198
g79
tp2292
aa(lp2293
(I801
I198
g43
tp2294
aa(lp2295
(I855
I90
g8
tp2296
aa(lp2297
(I837
I81
g31
tp2298
aa(lp2299
(I747
I99
g229
tp2300
aa(lp2301
(I837
I243
g14
tp2302
aa(lp2303
(I855
I189
g82
tp2304
aa(lp2305
(I747
I243
g40
tp2306
aa(lp2307
(I747
I189
g31
tp2308
aa(lp2309
(I801
I117
g31
tp2310
aa(lp2311
(I855
I126
g43
tp2312
aa(lp2313
(I783
I72
g11
tp2314
aa(lp2315
(I819
I108
g28
tp2316
aa(lp2317
(I855
I198
g53
tp2318
aa(lp2319
(I783
I162
g19
tp2320
aa(lp2321
(I747
I72
g58
tp2322
aa(lp2323
(I765
I207
g8
tp2324
aa(lp2325
(I819
I90
g82
tp2326
aa(lp2327
(I819
I216
g82
tp2328
aa(lp2329
(I801
I90
g82
tp2330
aa(lp2331
(I837
I243
g25
tp2332
aa(lp2333
(I837
I261
g2
tp2334
aa(lp2335
(I855
I198
g99
tp2336
aa(lp2337
(I837
I108
g79
tp2338
aa(lp2339
(I837
I189
g34
tp2340
aa(lp2341
(I783
I216
g31
tp2342
aa(lp2343
(I765
I180
g43
tp2344
aa(lp2345
(I855
I171
g34
tp2346
aa(lp2347
(I819
I225
g87
tp2348
aa(lp2349
(I819
I252
g8
tp2350
aa(lp2351
(I747
I117
g31
tp2352
aa(lp2353
(I837
I135
g87
tp2354
aa(lp2355
(I765
I180
g19
tp2356
aa(lp2357
(I747
I207
g5
tp2358
aa(lp2359
(I783
I108
g40
tp2360
aa(lp2361
(I855
I252
g14
tp2362
aa(lp2363
(I837
I207
g22
tp2364
aa(lp2365
(I801
I99
g25
tp2366
aa(lp2367
(I837
I99
g5
tp2368
aa(lp2369
(I747
I126
g2
tp2370
aa(lp2371
(I855
I189
g53
tp2372
aa(lp2373
(I765
I153
g64
tp2374
aa(lp2375
(I747
I180
g5
tp2376
aa(lp2377
(I819
I81
g34
tp2378
aa(lp2379
(I765
I189
g43
tp2380
aa(lp2381
(I801
I144
g22
tp2382
aa(lp2383
(I801
I153
g28
tp2384
aa(lp2385
(I837
I90
g43
tp2386
aa(lp2387
(I837
I189
g229
tp2388
aa(lp2389
(I819
I99
g61
tp2390
aa(lp2391
(I819
I108
g19
tp2392
aa(lp2393
(I855
I261
g37
tp2394
aa(lp2395
(I855
I261
g31
tp2396
aa(lp2397
(I783
I162
g229
tp2398
aa(lp2399
(I801
I234
g19
tp2400
aa(lp2401
(I837
I144
g160
tp2402
aa(lp2403
(I801
I180
g19
tp2404
aa(lp2405
(I765
I171
g28
tp2406
aa(lp2407
(I855
I171
g82
tp2408
aa(lp2409
(I765
I135
g53
tp2410
aa(lp2411
(I837
I144
g99
tp2412
aa(lp2413
(I765
I207
g229
tp2414
aa(lp2415
(I801
I171
g25
tp2416
aa(lp2417
(I765
I180
g53
tp2418
aa(lp2419
(I783
I99
g82
tp2420
aa(lp2421
(I855
I270
g99
tp2422
aa(lp2423
(I819
I117
g37
tp2424
aa(lp2425
(I747
I99
g82
tp2426
aa(lp2427
(I945
I189
g40
tp2428
aa(lp2429
(I981
I90
g40
tp2430
aa(lp2431
(I891
I243
g229
tp2432
aa(lp2433
(I909
I126
g5
tp2434
aa(lp2435
(I945
I216
g11
tp2436
aa(lp2437
(I999
I81
g64
tp2438
aa(lp2439
(I945
I90
g8
tp2440
aa(lp2441
(I927
I126
g99
tp2442
aa(lp2443
(I963
I135
g43
tp2444
aa(lp2445
(I927
I189
g53
tp2446
aa(lp2447
(I981
I225
g40
tp2448
aa(lp2449
(I999
I144
g58
tp2450
aa(lp2451
(I945
I189
g40
tp2452
aa(lp2453
(I963
I81
g46
tp2454
aa(lp2455
(I999
I162
g31
tp2456
aa(lp2457
(I927
I99
g22
tp2458
aa(lp2459
(I891
I144
g53
tp2460
aa(lp2461
(I963
I72
g58
tp2462
aa(lp2463
(I909
I90
g19
tp2464
aa(lp2465
(I891
I234
g82
tp2466
aa(lp2467
(I981
I252
g2
tp2468
aa(lp2469
(I999
I225
g160
tp2470
aa(lp2471
(I927
I90
g14
tp2472
aa(lp2473
(I999
I261
g5
tp2474
aa(lp2475
(I945
I135
g94
tp2476
aa(lp2477
(I999
I189
g8
tp2478
aa(lp2479
(I945
I234
g61
tp2480
aa(lp2481
(I891
I261
g5
tp2482
aa(lp2483
(I945
I72
g58
tp2484
aa(lp2485
(I909
I81
g19
tp2486
aa(lp2487
(I981
I234
g8
tp2488
aa(lp2489
(I927
I144
g37
tp2490
aa(lp2491
(I909
I243
g94
tp2492
aa(lp2493
(I891
I189
g40
tp2494
aa(lp2495
(I963
I225
g14
tp2496
aa(lp2497
(I999
I153
g53
tp2498
aa(lp2499
(I945
I90
g58
tp2500
aa(lp2501
(I909
I162
g40
tp2502
aa(lp2503
(I945
I171
g61
tp2504
aa(lp2505
(I927
I162
g37
tp2506
aa(lp2507
(I963
I126
g61
tp2508
aa(lp2509
(I999
I153
g160
tp2510
aa(lp2511
(I981
I144
g61
tp2512
aa(lp2513
(I909
I234
g43
tp2514
aa(lp2515
(I927
I144
g43
tp2516
aa(lp2517
(I981
I243
g79
tp2518
aa(lp2519
(I909
I117
g37
tp2520
aa(lp2521
(I981
I189
g58
tp2522
aa(lp2523
(I963
I117
g2
tp2524
aa(lp2525
(I981
I117
g14
tp2526
aa(lp2527
(I999
I261
g34
tp2528
aa(lp2529
(I927
I234
g61
tp2530
aa(lp2531
(I981
I270
g87
tp2532
aa(lp2533
(I927
I72
g160
tp2534
aa(lp2535
(I999
I207
g5
tp2536
aa(lp2537
(I927
I117
g87
tp2538
aa(lp2539
(I927
I252
g2
tp2540
aa(lp2541
(I891
I252
g160
tp2542
aa(lp2543
(I945
I72
g87
tp2544
aa(lp2545
(I999
I171
g34
tp2546
aa(lp2547
(I999
I234
g14
tp2548
aa(lp2549
(I945
I135
g43
tp2550
aa(lp2551
(I963
I216
g43
tp2552
aa(lp2553
(I981
I99
g79
tp2554
aa(lp2555
(I927
I243
g58
tp2556
aa(lp2557
(I999
I90
g53
tp2558
aa(lp2559
(I963
I144
g229
tp2560
aa(lp2561
(I891
I189
g82
tp2562
aa(lp2563
(I963
I216
g61
tp2564
aa(lp2565
(I891
I207
g79
tp2566
aa(lp2567
(I999
I243
g31
tp2568
aa(lp2569
(I891
I72
g160
tp2570
aa(lp2571
(I981
I90
g11
tp2572
aa(lp2573
(I999
I225
g19
tp2574
aa(lp2575
(I999
I171
g40
tp2576
aa(lp2577
(I999
I99
g34
tp2578
aa(lp2579
(I927
I81
g28
tp2580
aa(lp2581
(I909
I72
g53
tp2582
aa(lp2583
(I963
I189
g43
tp2584
aa(lp2585
(I927
I135
g99
tp2586
aa(lp2587
(I909
I225
g94
tp2588
aa(lp2589
(I963
I261
g37
tp2590
aa(lp2591
(I945
I252
g2
tp2592
aa(lp2593
(I945
I135
g99
tp2594
aa(lp2595
(I963
I270
g11
tp2596
aa(lp2597
(I945
I162
g99
tp2598
aa(lp2599
(I999
I261
g99
tp2600
aa(lp2601
(I927
I216
g79
tp2602
aa(lp2603
(I927
I153
g40
tp2604
aa(lp2605
(I909
I180
g58
tp2606
aa(lp2607
(I999
I243
g40
tp2608
aa(lp2609
(I981
I234
g94
tp2610
aa(lp2611
(I927
I108
g99
tp2612
aa(lp2613
(I891
I243
g58
tp2614
aa(lp2615
(I927
I270
g28
tp2616
aa(lp2617
(I945
I144
g229
tp2618
aa(lp2619
(I963
I72
g61
tp2620
aa(lp2621
(I909
I180
g31
tp2622
aa(lp2623
(I999
I261
g31
tp2624
aa(lp2625
(I945
I180
g87
tp2626
aa(lp2627
(I891
I189
g11
tp2628
aa(lp2629
(I963
I162
g53
tp2630
aa(lp2631
(I999
I99
g40
tp2632
aa(lp2633
(I945
I207
g14
tp2634
aa(lp2635
(I999
I117
g28
tp2636
aa(lp2637
(I927
I126
g11
tp2638
aa(lp2639
(I909
I117
g79
tp2640
aa(lp2641
(I981
I180
g40
tp2642
aa(lp2643
(I909
I270
g5
tp2644
aa(lp2645
(I981
I243
g46
tp2646
aa(lp2647
(I945
I99
g31
tp2648
aa(lp2649
(I945
I234
g43
tp2650
aa(lp2651
(I999
I261
g87
tp2652
aa(lp2653
(I999
I243
g64
tp2654
aa(lp2655
(I909
I171
g160
tp2656
aa(lp2657
(I891
I99
g11
tp2658
aa(lp2659
(I999
I252
g2
tp2660
aa(lp2661
(I891
I252
g22
tp2662
aa(lp2663
(I963
I72
g2
tp2664
aa(lp2665
(I999
I144
g79
tp2666
aa(lp2667
(I909
I216
g22
tp2668
aa(lp2669
(I945
I117
g82
tp2670
aa(lp2671
(I891
I225
g11
tp2672
aa(lp2673
(I963
I162
g14
tp2674
aa(lp2675
(I927
I198
g19
tp2676
aa(lp2677
(I999
I81
g5
tp2678
aa(lp2679
(I963
I90
g99
tp2680
aa(lp2681
(I963
I180
g31
tp2682
aa(lp2683
(I963
I99
g8
tp2684
aa(lp2685
(I927
I135
g8
tp2686
aa(lp2687
(I891
I207
g34
tp2688
aa(lp2689
(I945
I207
g34
tp2690
aa(lp2691
(I945
I216
g160
tp2692
aa(lp2693
(I963
I126
g19
tp2694
aa(lp2695
(I891
I162
g5
tp2696
aa(lp2697
(I891
I252
g11
tp2698
aa(lp2699
(I999
I252
g58
tp2700
aa(lp2701
(I981
I90
g11
tp2702
aa(lp2703
(I891
I189
g46
tp2704
aa(lp2705
(I927
I234
g94
tp2706
aa(lp2707
(I999
I198
g99
tp2708
aa(lp2709
(I927
I144
g25
tp2710
aa(lp2711
(I963
I108
g229
tp2712
aa(lp2713
(I963
I216
g46
tp2714
aa(lp2715
(I945
I108
g28
tp2716
aa(lp2717
(I909
I108
g5
tp2718
aa(lp2719
(I927
I189
g58
tp2720
aa(lp2721
(I945
I261
g28
tp2722
aa(lp2723
(I909
I180
g64
tp2724
aa(lp2725
(I981
I153
g99
tp2726
aa(lp2727
(I945
I207
g64
tp2728
aa(lp2729
(I927
I243
g79
tp2730
aa(lp2731
(I963
I153
g82
tp2732
aa(lp2733
(I927
I270
g28
tp2734
aa(lp2735
(I999
I252
g87
tp2736
aa(lp2737
(I909
I162
g31
tp2738
aa(lp2739
(I909
I225
g160
tp2740
aa(lp2741
(I945
I270
g28
tp2742
aa(lp2743
(I927
I72
g19
tp2744
aa(lp2745
(I909
I225
g2
tp2746
aa(lp2747
(I945
I252
g19
tp2748
aa(lp2749
(I909
I252
g82
tp2750
aa(lp2751
(I963
I171
g160
tp2752
aa(lp2753
(I909
I225
g37
tp2754
aa(lp2755
(I999
I162
g22
tp2756
aa(lp2757
(I891
I117
g37
tp2758
aa(lp2759
(I891
I81
g64
tp2760
aa(lp2761
(I891
I189
g99
tp2762
aa(lp2763
(I927
I252
g94
tp2764
aa(lp2765
(I999
I162
g43
tp2766
aa(lp2767
(I891
I189
g82
tp2768
aa(lp2769
(I945
I180
g53
tp2770
aa(lp2771
(I927
I126
g79
tp2772
aa(lp2773
(I927
I189
g87
tp2774
aa(lp2775
(I981
I270
g64
tp2776
aa(lp2777
(I945
I225
g61
tp2778
aa(lp2779
(I909
I225
g25
tp2780
aa(lp2781
(I927
I171
g43
tp2782
aa(lp2783
(I891
I216
g34
tp2784
aa(lp2785
(I909
I252
g53
tp2786
aa(lp2787
(I963
I198
g25
tp2788
aa(lp2789
(I981
I162
g87
tp2790
aa(lp2791
(I999
I108
g5
tp2792
aa(lp2793
(I909
I171
g31
tp2794
aa(lp2795
(I981
I135
g53
tp2796
aa(lp2797
(I981
I180
g87
tp2798
aa(lp2799
(I981
I207
g79
tp2800
aa(lp2801
(I927
I171
g99
tp2802
aa(lp2803
(I963
I207
g37
tp2804
aa(lp2805
(I945
I198
g94
tp2806
aa(lp2807
(I945
I243
g94
tp2808
aa(lp2809
(I891
I135
g94
tp2810
aa(lp2811
(I981
I90
g61
tp2812
aa(lp2813
(I999
I198
g34
tp2814
aa(lp2815
(I963
I144
g8
tp2816
aa(lp2817
(I909
I126
g43
tp2818
aa(lp2819
(I999
I252
g28
tp2820
aa(lp2821
(I963
I162
g2
tp2822
aa(lp2823
(I999
I99
g14
tp2824
aa(lp2825
(I999
I180
g19
tp2826
aa(lp2827
(I1071
I171
g2
tp2828
aa(lp2829
(I1143
I198
g79
tp2830
aa(lp2831
(I1035
I126
g19
tp2832
aa(lp2833
(I1053
I207
g11
tp2834
aa(lp2835
(I1107
I99
g53
tp2836
aa(lp2837
(I1035
I198
g25
tp2838
aa(lp2839
(I1071
I225
g22
tp2840
aa(lp2841
(I1035
I117
g14
tp2842
aa(lp2843
(I1071
I207
g40
tp2844
aa(lp2845
(I1143
I162
g46
tp2846
aa(lp2847
(I1107
I153
g94
tp2848
aa(lp2849
(I1071
I243
g14
tp2850
aa(lp2851
(I1107
I216
g11
tp2852
aa(lp2853
(I1071
I144
g31
tp2854
aa(lp2855
(I1125
I90
g46
tp2856
aa(lp2857
(I1035
I243
g43
tp2858
aa(lp2859
(I1053
I261
g40
tp2860
aa(lp2861
(I1053
I117
g64
tp2862
aa(lp2863
(I1143
I252
g2
tp2864
aa(lp2865
(I1053
I198
g34
tp2866
aa(lp2867
(I1143
I189
g8
tp2868
aa(lp2869
(I1107
I117
g99
tp2870
aa(lp2871
(I1071
I126
g79
tp2872
aa(lp2873
(I1107
I270
g46
tp2874
aa(lp2875
(I1125
I99
g37
tp2876
aa(lp2877
(I1053
I153
g34
tp2878
aa(lp2879
(I1053
I189
g8
tp2880
aa(lp2881
(I1143
I90
g25
tp2882
aa(lp2883
(I1089
I153
g25
tp2884
aa(lp2885
(I1089
I243
g43
tp2886
aa(lp2887
(I1071
I207
g5
tp2888
aa(lp2889
(I1089
I171
g46
tp2890
aa(lp2891
(I1071
I144
g87
tp2892
aa(lp2893
(I1053
I171
g64
tp2894
aa(lp2895
(I1143
I135
g25
tp2896
aa(lp2897
(I1107
I261
g31
tp2898
aa(lp2899
(I1107
I99
g79
tp2900
aa(lp2901
(I1125
I126
g25
tp2902
aa(lp2903
(I1089
I90
g22
tp2904
aa(lp2905
(I1089
I216
g11
tp2906
aa(lp2907
(I1107
I144
g43
tp2908
aa(lp2909
(I1107
I135
g14
tp2910
aa(lp2911
(I1143
I99
g40
tp2912
aa(lp2913
(I1089
I207
g99
tp2914
aa(lp2915
(I1071
I81
g31
tp2916
aa(lp2917
(I1071
I72
g19
tp2918
aa(lp2919
(I1035
I117
g46
tp2920
aa(lp2921
(I1053
I72
g19
tp2922
aa(lp2923
(I1053
I153
g22
tp2924
aa(lp2925
(I1089
I72
g14
tp2926
aa(lp2927
(I1071
I153
g79
tp2928
aa(lp2929
(I1035
I216
g25
tp2930
aa(lp2931
(I1125
I234
g160
tp2932
aa(lp2933
(I1071
I234
g160
tp2934
aa(lp2935
(I1071
I270
g64
tp2936
aa(lp2937
(I1035
I216
g37
tp2938
aa(lp2939
(I1143
I180
g19
tp2940
aa(lp2941
(I1035
I252
g19
tp2942
aa(lp2943
(I1089
I270
g64
tp2944
aa(lp2945
(I1125
I72
g2
tp2946
aa(lp2947
(I1035
I198
g94
tp2948
aa(lp2949
(I1143
I189
g87
tp2950
aa(lp2951
(I1089
I72
g5
tp2952
aa(lp2953
(I1089
I225
g46
tp2954
aa(lp2955
(I1107
I261
g87
tp2956
aa(lp2957
(I1053
I81
g25
tp2958
aa(lp2959
(I1125
I261
g19
tp2960
aa(lp2961
(I1053
I135
g87
tp2962
aa(lp2963
(I1071
I252
g22
tp2964
aa(lp2965
(I1125
I216
g229
tp2966
aa(lp2967
(I1125
I171
g19
tp2968
aa(lp2969
(I1089
I243
g79
tp2970
aa(lp2971
(I1125
I117
g58
tp2972
aa(lp2973
(I1143
I153
g43
tp2974
aa(lp2975
(I1035
I99
g58
tp2976
aa(lp2977
(I1089
I126
g40
tp2978
aa(lp2979
(I1143
I252
g8
tp2980
aa(lp2981
(I1143
I99
g229
tp2982
aa(lp2983
(I1107
I153
g8
tp2984
aa(lp2985
(I1107
I99
g8
tp2986
aa(lp2987
(I1107
I81
g43
tp2988
aa(lp2989
(I1053
I198
g22
tp2990
aa(lp2991
(I1071
I108
g2
tp2992
aa(lp2993
(I1089
I117
g46
tp2994
aa(lp2995
(I1143
I252
g79
tp2996
aa(lp2997
(I1143
I189
g79
tp2998
aa(lp2999
(I1143
I81
g2
tp3000
aa(lp3001
(I1143
I135
g87
tp3002
aa(lp3003
(I1125
I180
g19
tp3004
aa(lp3005
(I1071
I216
g58
tp3006
aa(lp3007
(I1143
I225
g2
tp3008
aa(lp3009
(I1053
I243
g8
tp3010
aa(lp3011
(I1107
I171
g160
tp3012
aa(lp3013
(I1125
I225
g19
tp3014
aa(lp3015
(I1071
I216
g14
tp3016
aa(lp3017
(I1053
I207
g58
tp3018
aa(lp3019
(I1035
I270
g94
tp3020
aa(lp3021
(I1035
I252
g22
tp3022
aa(lp3023
(I1107
I171
g14
tp3024
aa(lp3025
(I1089
I270
g53
tp3026
aa(lp3027
(I1071
I252
g229
tp3028
aa(lp3029
(I1125
I225
g34
tp3030
aa(lp3031
(I1053
I198
g64
tp3032
aa(lp3033
(I1053
I198
g43
tp3034
aa(lp3035
(I1125
I108
g43
tp3036
aa(lp3037
(I1071
I243
g58
tp3038
aa(lp3039
(I1107
I99
g5
tp3040
aa(lp3041
(I1071
I252
g11
tp3042
aa(lp3043
(I1089
I189
g22
tp3044
aa(lp3045
(I1053
I135
g53
tp3046
aa(lp3047
(I1071
I90
g25
tp3048
aa(lp3049
(I1143
I207
g94
tp3050
aa(lp3051
(I1143
I261
g31
tp3052
aa(lp3053
(I1053
I81
g2
tp3054
aa(lp3055
(I1035
I81
g11
tp3056
aa(lp3057
(I1143
I135
g160
tp3058
aa(lp3059
(I1053
I72
g19
tp3060
aa(lp3061
(I1071
I270
g11
tp3062
aa(lp3063
(I1035
I198
g22
tp3064
aa(lp3065
(I1125
I72
g82
tp3066
aa(lp3067
(I1107
I189
g46
tp3068
aa(lp3069
(I1071
I171
g14
tp3070
aa(lp3071
(I1107
I270
g22
tp3072
aa(lp3073
(I1035
I153
g46
tp3074
aa(lp3075
(I1053
I225
g37
tp3076
aa(lp3077
(I1071
I216
g14
tp3078
aa(lp3079
(I1071
I198
g229
tp3080
aa(lp3081
(I1053
I225
g8
tp3082
aa(lp3083
(I1089
I216
g31
tp3084
aa(lp3085
(I1125
I99
g82
tp3086
aa(lp3087
(I1035
I171
g94
tp3088
aa(lp3089
(I1071
I180
g22
tp3090
aa(lp3091
(I1053
I234
g87
tp3092
aa(lp3093
(I1143
I117
g28
tp3094
aa(lp3095
(I1035
I117
g8
tp3096
aa(lp3097
(I1125
I171
g31
tp3098
aa(lp3099
(I1035
I180
g99
tp3100
aa(lp3101
(I1089
I234
g87
tp3102
aa(lp3103
(I1089
I108
g11
tp3104
aa(lp3105
(I1143
I198
g8
tp3106
aa(lp3107
(I1071
I261
g14
tp3108
aa(lp3109
(I1107
I144
g11
tp3110
aa(lp3111
(I1089
I252
g229
tp3112
aa(lp3113
(I1107
I189
g61
tp3114
aa(lp3115
(I1143
I234
g37
tp3116
aa(lp3117
(I1035
I171
g58
tp3118
aa(lp3119
(I1089
I252
g64
tp3120
aa(lp3121
(I1071
I216
g19
tp3122
aa(lp3123
(I1053
I99
g61
tp3124
aa(lp3125
(I1053
I162
g37
tp3126
aa(lp3127
(I1143
I144
g8
tp3128
aa(lp3129
(I1053
I207
g19
tp3130
aa(lp3131
(I1143
I207
g46
tp3132
aa(lp3133
(I1071
I216
g28
tp3134
aa(lp3135
(I1125
I126
g61
tp3136
aa(lp3137
(I1089
I234
g64
tp3138
aa(lp3139
(I1053
I153
g61
tp3140
aa(lp3141
(I1107
I117
g229
tp3142
aa(lp3143
(I1035
I225
g82
tp3144
aa(lp3145
(I1143
I99
g87
tp3146
aa(lp3147
(I1035
I216
g82
tp3148
aa(lp3149
(I1107
I144
g14
tp3150
aa(lp3151
(I1035
I171
g31
tp3152
aa(lp3153
(I1071
I252
g34
tp3154
aa(lp3155
(I1053
I234
g99
tp3156
aa(lp3157
(I1071
I153
g229
tp3158
aa(lp3159
(I1143
I81
g31
tp3160
aa(lp3161
(I1107
I270
g34
tp3162
aa(lp3163
(I1089
I135
g28
tp3164
aa(lp3165
(I1071
I189
g46
tp3166
aa(lp3167
(I1035
I261
g37
tp3168
aa(lp3169
(I1107
I108
g19
tp3170
aa(lp3171
(I1143
I225
g22
tp3172
aa(lp3173
(I1089
I108
g87
tp3174
aa(lp3175
(I1143
I243
g22
tp3176
aa(lp3177
(I1107
I189
g14
tp3178
aa(lp3179
(I1035
I261
g87
tp3180
aa(lp3181
(I1107
I261
g94
tp3182
aa(lp3183
(I1107
I171
g46
tp3184
aa(lp3185
(I1107
I90
g22
tp3186
aa(lp3187
(I1035
I225
g25
tp3188
aa(lp3189
(I1053
I144
g5
tp3190
aa(lp3191
(I1035
I117
g79
tp3192
aa(lp3193
(I1125
I144
g43
tp3194
aa(lp3195
(I1035
I117
g53
tp3196
aa(lp3197
(I1035
I189
g43
tp3198
aa(lp3199
(I1089
I72
g25
tp3200
aa(lp3201
(I1125
I261
g94
tp3202
aa(lp3203
(I1071
I207
g40
tp3204
aa(lp3205
(I1071
I234
g64
tp3206
aa(lp3207
(I1071
I261
g25
tp3208
aa(lp3209
(I1071
I216
g229
tp3210
aa(lp3211
(I1071
I108
g2
tp3212
aa(lp3213
(I1107
I72
g2
tp3214
aa(lp3215
(I1053
I234
g37
tp3216
aa(lp3217
(I1107
I117
g8
tp3218
aa(lp3219
(I1107
I81
g40
tp3220
aa(lp3221
(I1035
I171
g34
tp3222
aa(lp3223
(I1143
I90
g25
tp3224
aa(lp3225
(I1071
I90
g94
tp3226
aa.