(lp0
(lp1
(I63
I99
S'z'
p2
tp3
aa(lp4
(I117
I252
S'i'
p5
tp6
aa(lp7
(I99
I171
S'r'
p8
tp9
aa(lp10
(I135
I252
S'u'
p11
tp12
aa(lp13
(I63
I180
S'o'
p14
tp15
aa(lp16
(I81
I180
S'v'
p17
tp18
aa(lp19
(I63
I234
S'e'
p20
tp21
aa(lp22
(I135
I189
S't'
p23
tp24
aa(lp25
(I81
I72
S'b'
p26
tp27
aa(lp28
(I63
I234
S'c'
p29
tp30
aa(lp31
(I81
I198
g26
tp32
aa(lp33
(I135
I216
S'n'
p34
tp35
aa(lp36
(I117
I270
g29
tp37
aa(lp38
(I45
I81
g5
tp39
aa(lp40
(I99
I72
g8
tp41
aa(lp42
(I135
I144
S'q'
p43
tp44
aa(lp45
(I135
I117
g5
tp46
aa(lp47
(I81
I180
g17
tp48
aa(lp49
(I135
I261
S'h'
p50
tp51
aa(lp52
(I117
I207
S'w'
p53
tp54
aa(lp55
(I63
I144
g2
tp56
aa(lp57
(I63
I207
S's'
p58
tp59
aa(lp60
(I99
I243
S'f'
p61
tp62
aa(lp63
(I117
I189
S'y'
p64
tp65
aa(lp66
(I99
I99
S'l'
p67
tp68
aa(lp69
(I135
I225
S'g'
p70
tp71
aa(lp72
(I81
I144
S'm'
p73
tp74
aa(lp75
(I63
I243
g70
tp76
aa(lp77
(I99
I180
S'x'
p78
tp79
aa(lp80
(I99
I144
S'k'
p81
tp82
aa(lp83
(I63
I270
g64
tp84
aa(lp85
(I81
I216
g23
tp86
aa(lp87
(I99
I81
S'd'
p88
tp89
aa(lp90
(I117
I108
g73
tp91
aa(lp92
(I27
I225
S'a'
p93
tp94
aa(lp95
(I45
I162
g26
tp96
aa(lp97
(I27
I243
g61
tp98
aa(lp99
(I81
I99
g34
tp100
aa(lp101
(I45
I81
g50
tp102
aa(lp103
(I27
I153
g20
tp104
aa(lp105
(I63
I108
g50
tp106
aa(lp107
(I99
I117
g34
tp108
aa(lp109
(I27
I216
g23
tp110
aa(lp111
(I63
I117
g20
tp112
aa(lp113
(I117
I99
g53
tp114
aa(lp115
(I63
I99
g26
tp116
aa(lp117
(I45
I81
g58
tp118
aa(lp119
(I117
I252
g81
tp120
aa(lp121
(I27
I198
g29
tp122
aa(lp123
(I27
I135
g8
tp124
aa(lp125
(I45
I189
g78
tp126
aa(lp127
(I45
I153
g70
tp128
aa(lp129
(I81
I171
g58
tp130
aa(lp131
(I135
I252
S'p'
p132
tp133
aa(lp134
(I81
I198
g5
tp135
aa(lp136
(I117
I261
g11
tp137
aa(lp138
(I45
I63
g93
tp139
aa(lp140
(I63
I207
g8
tp141
aa(lp142
(I117
I153
g20
tp143
aa(lp144
(I99
I108
g29
tp145
aa(lp146
(I27
I261
g53
tp147
aa(lp148
(I63
I153
g5
tp149
aa(lp150
(I117
I189
g73
tp151
aa(lp152
(I27
I126
g26
tp153
aa(lp154
(I63
I216
g88
tp155
aa(lp156
(I27
I207
g64
tp157
aa(lp158
(I81
I144
g64
tp159
aa(lp160
(I135
I216
g2
tp161
aa(lp162
(I63
I261
g20
tp163
aa(lp164
(I63
I63
g88
tp165
aa(lp166
(I45
I216
g34
tp167
aa(lp168
(I117
I180
g64
tp169
aa(lp170
(I81
I243
g14
tp171
aa(lp172
(I45
I72
g11
tp173
aa(lp174
(I81
I234
g53
tp175
aa(lp176
(I135
I234
g34
tp177
aa(lp178
(I135
I81
g23
tp179
aa(lp180
(I99
I153
g93
tp181
aa(lp182
(I135
I243
g34
tp183
aa(lp184
(I27
I153
g17
tp185
aa(lp186
(I27
I162
g64
tp187
aa(lp188
(I45
I261
g2
tp189
aa(lp190
(I27
I252
g5
tp191
aa(lp192
(I45
I207
g26
tp193
aa(lp194
(I27
I234
g14
tp195
aa(lp196
(I117
I171
g34
tp197
aa(lp198
(I27
I261
g50
tp199
aa(lp200
(I27
I252
g67
tp201
aa(lp202
(I135
I234
g58
tp203
aa(lp204
(I135
I171
g61
tp205
aa(lp206
(I45
I270
g61
tp207
aa(lp208
(I81
I90
g2
tp209
aa(lp210
(I81
I252
g11
tp211
aa(lp212
(I27
I225
g43
tp213
aa(lp214
(I117
I117
g8
tp215
aa(lp216
(I81
I189
g64
tp217
aa(lp218
(I99
I162
g58
tp219
aa(lp220
(I135
I171
g29
tp221
aa(lp222
(I81
I144
g14
tp223
aa(lp224
(I81
I189
g93
tp225
aa(lp226
(I135
I135
g61
tp227
aa(lp228
(I27
I162
g88
tp229
aa(lp230
(I99
I126
g20
tp231
aa(lp232
(I27
I252
g11
tp233
aa(lp234
(I45
I153
S'j'
p235
tp236
aa(lp237
(I27
I90
g26
tp238
aa(lp239
(I81
I234
g14
tp240
aa(lp241
(I135
I153
g53
tp242
aa(lp243
(I99
I171
g70
tp244
aa(lp245
(I135
I171
g2
tp246
aa(lp247
(I27
I198
g2
tp248
aa(lp249
(I81
I153
g34
tp250
aa(lp251
(I63
I225
g5
tp252
aa(lp253
(I27
I72
g29
tp254
aa(lp255
(I135
I63
g53
tp256
aa(lp257
(I27
I198
g26
tp258
aa(lp259
(I81
I171
g81
tp260
aa(lp261
(I99
I99
g58
tp262
aa(lp263
(I135
I72
g81
tp264
aa(lp265
(I45
I225
g8
tp266
aa(lp267
(I63
I171
g11
tp268
aa(lp269
(I27
I180
g73
tp270
aa(lp271
(I27
I207
g20
tp272
aa(lp273
(I135
I252
g88
tp274
aa(lp275
(I135
I252
g73
tp276
aa(lp277
(I45
I63
g67
tp278
aa(lp279
(I99
I63
g5
tp280
aa(lp281
(I117
I270
g23
tp282
aa(lp283
(I45
I99
g20
tp284
aa(lp285
(I45
I81
g61
tp286
aa(lp287
(I99
I189
g50
tp288
aa(lp289
(I63
I99
g67
tp290
aa(lp291
(I117
I117
g5
tp292
aa(lp293
(I117
I270
g14
tp294
aa(lp295
(I99
I270
g81
tp296
aa(lp297
(I117
I180
g88
tp298
aa(lp299
(I27
I135
g14
tp300
aa(lp301
(I27
I252
g11
tp302
aa(lp303
(I63
I252
g23
tp304
aa(lp305
(I45
I81
g67
tp306
aa(lp307
(I81
I99
g8
tp308
aa(lp309
(I117
I81
g81
tp310
aa(lp311
(I81
I216
g64
tp312
aa(lp313
(I27
I162
g2
tp314
aa(lp315
(I117
I261
g64
tp316
aa(lp317
(I45
I171
g26
tp318
aa(lp319
(I81
I99
g235
tp320
aa(lp321
(I45
I81
g88
tp322
aa(lp323
(I99
I189
g20
tp324
aa(lp325
(I63
I144
g5
tp326
aa(lp327
(I99
I99
g2
tp328
aa(lp329
(I27
I171
g88
tp330
aa(lp331
(I81
I180
g53
tp332
aa(lp333
(I117
I270
g26
tp334
aa(lp335
(I63
I135
g132
tp336
aa(lp337
(I63
I180
g81
tp338
aa(lp339
(I117
I63
g73
tp340
aa(lp341
(I135
I99
g64
tp342
aa(lp343
(I81
I99
g5
tp344
aa(lp345
(I99
I117
g20
tp346
aa(lp347
(I63
I63
g61
tp348
aa(lp349
(I135
I252
g20
tp350
aa(lp351
(I99
I81
g58
tp352
aa(lp353
(I27
I180
g70
tp354
aa(lp355
(I81
I63
g73
tp356
aa(lp357
(I27
I108
g23
tp358
aa(lp359
(I81
I153
g50
tp360
aa(lp361
(I135
I81
g2
tp362
aa(lp363
(I117
I243
g5
tp364
aa(lp365
(I117
I162
g2
tp366
aa(lp367
(I81
I243
g132
tp368
aa(lp369
(I135
I126
g29
tp370
aa(lp371
(I135
I162
g88
tp372
aa(lp373
(I45
I99
g78
tp374
aa(lp375
(I135
I171
g14
tp376
aa(lp377
(I99
I117
g14
tp378
aa(lp379
(I81
I198
g93
tp380
aa(lp381
(I45
I225
g11
tp382
aa(lp383
(I81
I270
g8
tp384
aa(lp385
(I63
I99
g78
tp386
aa(lp387
(I27
I63
g43
tp388
aa(lp389
(I117
I90
g78
tp390
aa(lp391
(I45
I189
g14
tp392
aa(lp393
(I63
I216
g235
tp394
aa(lp395
(I117
I108
g43
tp396
aa(lp397
(I27
I198
g64
tp398
aa(lp399
(I45
I171
g17
tp400
aa(lp401
(I45
I126
g64
tp402
aa(lp403
(I63
I225
g17
tp404
aa(lp405
(I27
I99
g64
tp406
aa(lp407
(I45
I207
g132
tp408
aa(lp409
(I45
I108
g43
tp410
aa(lp411
(I81
I108
g2
tp412
aa(lp413
(I99
I234
g93
tp414
aa(lp415
(I27
I81
g132
tp416
aa(lp417
(I81
I126
g78
tp418
aa(lp419
(I45
I225
g64
tp420
aa(lp421
(I135
I117
g26
tp422
aa(lp423
(I63
I153
g78
tp424
aa(lp425
(I99
I153
g43
tp426
aa(lp427
(I207
I216
g70
tp428
aa(lp429
(I189
I198
g43
tp430
aa(lp431
(I225
I90
g14
tp432
aa(lp433
(I261
I171
g34
tp434
aa(lp435
(I243
I126
g53
tp436
aa(lp437
(I261
I99
g235
tp438
aa(lp439
(I225
I216
g132
tp440
aa(lp441
(I225
I117
g58
tp442
aa(lp443
(I207
I81
g73
tp444
aa(lp445
(I279
I135
g93
tp446
aa(lp447
(I207
I90
g53
tp448
aa(lp449
(I225
I135
g50
tp450
aa(lp451
(I171
I81
g88
tp452
aa(lp453
(I279
I144
g132
tp454
aa(lp455
(I225
I135
g5
tp456
aa(lp457
(I225
I189
g81
tp458
aa(lp459
(I189
I189
g64
tp460
aa(lp461
(I279
I216
g64
tp462
aa(lp463
(I261
I117
g50
tp464
aa(lp465
(I225
I270
g23
tp466
aa(lp467
(I261
I72
g26
tp468
aa(lp469
(I225
I135
g70
tp470
aa(lp471
(I279
I81
g8
tp472
aa(lp473
(I243
I225
g11
tp474
aa(lp475
(I171
I171
g93
tp476
aa(lp477
(I207
I225
g5
tp478
aa(lp479
(I225
I270
g34
tp480
aa(lp481
(I171
I90
g26
tp482
aa(lp483
(I261
I225
g50
tp484
aa(lp485
(I279
I171
g5
tp486
aa(lp487
(I171
I216
g20
tp488
aa(lp489
(I171
I189
g88
tp490
aa(lp491
(I261
I99
g81
tp492
aa(lp493
(I189
I261
g73
tp494
aa(lp495
(I279
I90
g11
tp496
aa(lp497
(I261
I270
g61
tp498
aa(lp499
(I261
I108
g61
tp500
aa(lp501
(I171
I234
g70
tp502
aa(lp503
(I243
I126
g5
tp504
aa(lp505
(I225
I99
g93
tp506
aa(lp507
(I261
I99
g81
tp508
aa(lp509
(I261
I234
g50
tp510
aa(lp511
(I261
I108
g11
tp512
aa(lp513
(I189
I198
g73
tp514
aa(lp515
(I243
I153
g61
tp516
aa(lp517
(I207
I144
g20
tp518
aa(lp519
(I279
I216
g34
tp520
aa(lp521
(I207
I252
g235
tp522
aa(lp523
(I171
I180
g81
tp524
aa(lp525
(I261
I108
g5
tp526
aa(lp527
(I189
I252
g70
tp528
aa(lp529
(I225
I126
g78
tp530
aa(lp531
(I207
I252
g58
tp532
aa(lp533
(I171
I162
g11
tp534
aa(lp535
(I243
I72
g93
tp536
aa(lp537
(I207
I81
g2
tp538
aa(lp539
(I189
I252
g8
tp540
aa(lp541
(I171
I180
g81
tp542
aa(lp543
(I225
I216
g50
tp544
aa(lp545
(I243
I144
g20
tp546
aa(lp547
(I207
I144
g50
tp548
aa(lp549
(I243
I135
g11
tp550
aa(lp551
(I207
I216
g78
tp552
aa(lp553
(I261
I144
g20
tp554
aa(lp555
(I171
I162
g132
tp556
aa(lp557
(I261
I81
g81
tp558
aa(lp559
(I243
I198
g43
tp560
aa(lp561
(I225
I108
g88
tp562
aa(lp563
(I171
I144
g17
tp564
aa(lp565
(I279
I261
g26
tp566
aa(lp567
(I171
I117
g70
tp568
aa(lp569
(I207
I198
g132
tp570
aa(lp571
(I171
I144
g50
tp572
aa(lp573
(I243
I216
g23
tp574
aa(lp575
(I225
I108
g43
tp576
aa(lp577
(I189
I90
g58
tp578
aa(lp579
(I225
I252
g81
tp580
aa(lp581
(I207
I108
g132
tp582
aa(lp583
(I189
I144
g53
tp584
aa(lp585
(I189
I135
g88
tp586
aa(lp587
(I189
I198
g235
tp588
aa(lp589
(I189
I81
g61
tp590
aa(lp591
(I261
I207
g34
tp592
aa(lp593
(I261
I252
g235
tp594
aa(lp595
(I261
I117
g23
tp596
aa(lp597
(I207
I171
g78
tp598
aa(lp599
(I225
I90
g73
tp600
aa(lp601
(I189
I198
g235
tp602
aa(lp603
(I207
I207
g2
tp604
aa(lp605
(I243
I126
g70
tp606
aa(lp607
(I279
I189
g70
tp608
aa(lp609
(I189
I81
g53
tp610
aa(lp611
(I189
I117
g34
tp612
aa(lp613
(I207
I126
g235
tp614
aa(lp615
(I207
I270
g20
tp616
aa(lp617
(I189
I243
g61
tp618
aa(lp619
(I279
I108
g11
tp620
aa(lp621
(I279
I81
g70
tp622
aa(lp623
(I225
I234
g2
tp624
aa(lp625
(I171
I99
g34
tp626
aa(lp627
(I243
I234
g5
tp628
aa(lp629
(I243
I81
g14
tp630
aa(lp631
(I171
I108
g5
tp632
aa(lp633
(I207
I243
g50
tp634
aa(lp635
(I279
I171
g81
tp636
aa(lp637
(I207
I171
g64
tp638
aa(lp639
(I207
I153
g50
tp640
aa(lp641
(I171
I99
g26
tp642
aa(lp643
(I171
I171
g29
tp644
aa(lp645
(I261
I225
g14
tp646
aa(lp647
(I279
I234
g93
tp648
aa(lp649
(I189
I99
g20
tp650
aa(lp651
(I207
I135
g81
tp652
aa(lp653
(I279
I243
g34
tp654
aa(lp655
(I189
I81
g58
tp656
aa(lp657
(I171
I144
g93
tp658
aa(lp659
(I171
I135
g61
tp660
aa(lp661
(I207
I252
g8
tp662
aa(lp663
(I225
I90
g67
tp664
aa(lp665
(I189
I126
g20
tp666
aa(lp667
(I243
I198
g34
tp668
aa(lp669
(I279
I90
g93
tp670
aa(lp671
(I261
I108
g17
tp672
aa(lp673
(I243
I144
g43
tp674
aa(lp675
(I225
I252
g67
tp676
aa(lp677
(I261
I216
g78
tp678
aa(lp679
(I207
I126
g58
tp680
aa(lp681
(I279
I270
g50
tp682
aa(lp683
(I207
I117
g64
tp684
aa(lp685
(I171
I117
g23
tp686
aa(lp687
(I261
I252
g20
tp688
aa(lp689
(I189
I162
g61
tp690
aa(lp691
(I225
I153
g34
tp692
aa(lp693
(I279
I270
g78
tp694
aa(lp695
(I243
I108
g64
tp696
aa(lp697
(I261
I171
g5
tp698
aa(lp699
(I189
I144
g58
tp700
aa(lp701
(I189
I225
g23
tp702
aa(lp703
(I207
I117
g14
tp704
aa(lp705
(I171
I234
g78
tp706
aa(lp707
(I279
I261
g235
tp708
aa(lp709
(I279
I135
g81
tp710
aa(lp711
(I189
I207
g29
tp712
aa(lp713
(I279
I189
g50
tp714
aa(lp715
(I225
I261
g70
tp716
aa(lp717
(I243
I270
g43
tp718
aa(lp719
(I279
I162
g8
tp720
aa(lp721
(I279
I171
g64
tp722
aa(lp723
(I225
I261
g43
tp724
aa(lp725
(I189
I189
g11
tp726
aa(lp727
(I171
I162
g70
tp728
aa(lp729
(I171
I81
g81
tp730
aa(lp731
(I243
I216
g53
tp732
aa(lp733
(I207
I126
g78
tp734
aa(lp735
(I279
I162
g88
tp736
aa(lp737
(I189
I81
g29
tp738
aa(lp739
(I261
I144
g43
tp740
aa(lp741
(I189
I252
g34
tp742
aa(lp743
(I279
I198
g64
tp744
aa(lp745
(I189
I90
g23
tp746
aa(lp747
(I279
I216
g78
tp748
aa(lp749
(I261
I108
g17
tp750
aa(lp751
(I279
I207
g58
tp752
aa(lp753
(I171
I252
g43
tp754
aa(lp755
(I171
I72
g2
tp756
aa(lp757
(I261
I189
g20
tp758
aa(lp759
(I207
I243
g61
tp760
aa(lp761
(I225
I243
g73
tp762
aa(lp763
(I261
I225
g50
tp764
aa(lp765
(I279
I108
g14
tp766
aa(lp767
(I189
I81
g235
tp768
aa(lp769
(I243
I81
g5
tp770
aa(lp771
(I243
I90
g67
tp772
aa(lp773
(I243
I81
g23
tp774
aa(lp775
(I225
I81
g23
tp776
aa(lp777
(I171
I108
g235
tp778
aa(lp779
(I189
I234
g70
tp780
aa(lp781
(I279
I153
g2
tp782
aa(lp783
(I243
I261
g43
tp784
aa(lp785
(I279
I81
g8
tp786
aa(lp787
(I225
I216
g64
tp788
aa(lp789
(I261
I198
g81
tp790
aa(lp791
(I207
I126
g2
tp792
aa(lp793
(I171
I216
g14
tp794
aa(lp795
(I261
I126
g2
tp796
aa(lp797
(I207
I171
g43
tp798
aa(lp799
(I171
I216
g50
tp800
aa(lp801
(I279
I198
g14
tp802
aa(lp803
(I279
I144
g61
tp804
aa(lp805
(I189
I144
g88
tp806
aa(lp807
(I261
I261
g81
tp808
aa(lp809
(I225
I180
g23
tp810
aa(lp811
(I279
I243
g53
tp812
aa(lp813
(I279
I135
g132
tp814
aa(lp815
(I225
I81
g70
tp816
aa(lp817
(I243
I99
g132
tp818
aa(lp819
(I171
I126
g73
tp820
aa(lp821
(I243
I171
g23
tp822
aa(lp823
(I225
I216
g78
tp824
aa(lp825
(I243
I243
g23
tp826
aa(lp827
(I351
I72
g78
tp828
aa(lp829
(I405
I126
g14
tp830
aa(lp831
(I423
I216
g93
tp832
aa(lp833
(I369
I90
g5
tp834
aa(lp835
(I315
I135
g5
tp836
aa(lp837
(I423
I90
g26
tp838
aa(lp839
(I351
I198
g61
tp840
aa(lp841
(I423
I108
g29
tp842
aa(lp843
(I423
I198
g5
tp844
aa(lp845
(I369
I198
g26
tp846
aa(lp847
(I351
I171
g5
tp848
aa(lp849
(I315
I135
g11
tp850
aa(lp851
(I369
I216
g17
tp852
aa(lp853
(I333
I72
g64
tp854
aa(lp855
(I387
I171
g43
tp856
aa(lp857
(I315
I135
g61
tp858
aa(lp859
(I423
I207
g73
tp860
aa(lp861
(I351
I261
g29
tp862
aa(lp863
(I315
I108
g93
tp864
aa(lp865
(I369
I234
g78
tp866
aa(lp867
(I405
I207
g23
tp868
aa(lp869
(I369
I135
g58
tp870
aa(lp871
(I405
I216
g20
tp872
aa(lp873
(I315
I207
g61
tp874
aa(lp875
(I351
I99
g29
tp876
aa(lp877
(I387
I126
g50
tp878
aa(lp879
(I405
I99
g88
tp880
aa(lp881
(I423
I234
g50
tp882
aa(lp883
(I405
I81
g70
tp884
aa(lp885
(I405
I189
g61
tp886
aa(lp887
(I315
I144
g132
tp888
aa(lp889
(I315
I189
g34
tp890
aa(lp891
(I333
I198
g73
tp892
aa(lp893
(I315
I126
g17
tp894
aa(lp895
(I333
I234
g78
tp896
aa(lp897
(I405
I270
g235
tp898
aa(lp899
(I423
I135
g58
tp900
aa(lp901
(I315
I189
g73
tp902
aa(lp903
(I369
I72
g93
tp904
aa(lp905
(I369
I198
g5
tp906
aa(lp907
(I369
I207
g11
tp908
aa(lp909
(I315
I81
g50
tp910
aa(lp911
(I387
I72
g58
tp912
aa(lp913
(I405
I144
g50
tp914
aa(lp915
(I423
I234
g132
tp916
aa(lp917
(I405
I126
g61
tp918
aa(lp919
(I333
I207
g93
tp920
aa(lp921
(I423
I225
g61
tp922
aa(lp923
(I405
I153
g78
tp924
aa(lp925
(I387
I117
g5
tp926
aa(lp927
(I369
I180
g29
tp928
aa(lp929
(I351
I171
g78
tp930
aa(lp931
(I387
I243
g235
tp932
aa(lp933
(I423
I189
g58
tp934
aa(lp935
(I315
I180
g11
tp936
aa(lp937
(I315
I144
g73
tp938
aa(lp939
(I405
I243
g93
tp940
aa(lp941
(I315
I144
g58
tp942
aa(lp943
(I369
I225
g67
tp944
aa(lp945
(I369
I108
g132
tp946
aa(lp947
(I369
I135
g70
tp948
aa(lp949
(I315
I153
g2
tp950
aa(lp951
(I423
I252
g29
tp952
aa(lp953
(I333
I261
g5
tp954
aa(lp955
(I423
I171
g20
tp956
aa(lp957
(I333
I234
g70
tp958
aa(lp959
(I423
I171
g14
tp960
aa(lp961
(I423
I72
g8
tp962
aa(lp963
(I423
I108
g20
tp964
aa(lp965
(I405
I72
g43
tp966
aa(lp967
(I387
I72
g235
tp968
aa(lp969
(I333
I198
g93
tp970
aa(lp971
(I333
I99
g43
tp972
aa(lp973
(I369
I243
g14
tp974
aa(lp975
(I387
I270
g2
tp976
aa(lp977
(I315
I117
g17
tp978
aa(lp979
(I405
I162
g53
tp980
aa(lp981
(I405
I117
g73
tp982
aa(lp983
(I351
I108
g70
tp984
aa(lp985
(I333
I207
g29
tp986
aa(lp987
(I333
I81
g70
tp988
aa(lp989
(I387
I225
g78
tp990
aa(lp991
(I351
I216
g88
tp992
aa(lp993
(I405
I153
g29
tp994
aa(lp995
(I423
I72
g53
tp996
aa(lp997
(I387
I225
g14
tp998
aa(lp999
(I369
I108
g23
tp1000
aa(lp1001
(I405
I189
g61
tp1002
aa(lp1003
(I387
I207
g8
tp1004
aa(lp1005
(I369
I153
g11
tp1006
aa(lp1007
(I387
I117
g11
tp1008
aa(lp1009
(I423
I189
g20
tp1010
aa(lp1011
(I315
I99
g70
tp1012
aa(lp1013
(I423
I81
g61
tp1014
aa(lp1015
(I387
I90
g29
tp1016
aa(lp1017
(I387
I189
g78
tp1018
aa(lp1019
(I405
I117
g132
tp1020
aa(lp1021
(I333
I252
g67
tp1022
aa(lp1023
(I315
I144
g11
tp1024
aa(lp1025
(I333
I243
g88
tp1026
aa(lp1027
(I315
I198
g8
tp1028
aa(lp1029
(I351
I126
g43
tp1030
aa(lp1031
(I369
I243
g132
tp1032
aa(lp1033
(I423
I261
g43
tp1034
aa(lp1035
(I333
I198
g78
tp1036
aa(lp1037
(I387
I126
g8
tp1038
aa(lp1039
(I423
I180
g81
tp1040
aa(lp1041
(I369
I90
g34
tp1042
aa(lp1043
(I405
I153
g34
tp1044
aa(lp1045
(I351
I162
g88
tp1046
aa(lp1047
(I423
I198
g88
tp1048
aa(lp1049
(I333
I180
g67
tp1050
aa(lp1051
(I315
I189
g50
tp1052
aa(lp1053
(I369
I207
g64
tp1054
aa(lp1055
(I405
I171
g43
tp1056
aa(lp1057
(I315
I99
g50
tp1058
aa(lp1059
(I423
I81
g26
tp1060
aa(lp1061
(I405
I180
g14
tp1062
aa(lp1063
(I387
I216
g50
tp1064
aa(lp1065
(I423
I216
g81
tp1066
aa(lp1067
(I369
I180
g88
tp1068
aa(lp1069
(I351
I72
g235
tp1070
aa(lp1071
(I315
I198
g26
tp1072
aa(lp1073
(I387
I234
g5
tp1074
aa(lp1075
(I423
I108
g34
tp1076
aa(lp1077
(I333
I90
g73
tp1078
aa(lp1079
(I405
I216
g58
tp1080
aa(lp1081
(I405
I90
g61
tp1082
aa(lp1083
(I351
I216
g132
tp1084
aa(lp1085
(I351
I261
g132
tp1086
aa(lp1087
(I405
I162
g20
tp1088
aa(lp1089
(I369
I108
g5
tp1090
aa(lp1091
(I387
I153
g14
tp1092
aa(lp1093
(I369
I135
g26
tp1094
aa(lp1095
(I423
I207
g23
tp1096
aa(lp1097
(I423
I162
g50
tp1098
aa(lp1099
(I351
I90
g23
tp1100
aa(lp1101
(I315
I207
g132
tp1102
aa(lp1103
(I333
I216
g17
tp1104
aa(lp1105
(I369
I252
g34
tp1106
aa(lp1107
(I333
I198
g64
tp1108
aa(lp1109
(I369
I189
g64
tp1110
aa(lp1111
(I351
I252
g78
tp1112
aa(lp1113
(I387
I126
g5
tp1114
aa(lp1115
(I387
I252
g132
tp1116
aa(lp1117
(I333
I261
g29
tp1118
aa(lp1119
(I405
I189
g64
tp1120
aa(lp1121
(I333
I180
g70
tp1122
aa(lp1123
(I369
I81
g5
tp1124
aa(lp1125
(I387
I126
g43
tp1126
aa(lp1127
(I351
I225
g14
tp1128
aa(lp1129
(I351
I225
g2
tp1130
aa(lp1131
(I405
I72
g17
tp1132
aa(lp1133
(I405
I135
g70
tp1134
aa(lp1135
(I423
I243
g23
tp1136
aa(lp1137
(I369
I135
g43
tp1138
aa(lp1139
(I369
I198
g14
tp1140
aa(lp1141
(I333
I216
g58
tp1142
aa(lp1143
(I351
I135
g78
tp1144
aa(lp1145
(I369
I207
g64
tp1146
aa(lp1147
(I333
I198
g88
tp1148
aa(lp1149
(I369
I99
g58
tp1150
aa(lp1151
(I315
I135
g73
tp1152
aa(lp1153
(I423
I207
g23
tp1154
aa(lp1155
(I351
I189
g8
tp1156
aa(lp1157
(I333
I117
g58
tp1158
aa(lp1159
(I423
I117
g81
tp1160
aa(lp1161
(I387
I225
g93
tp1162
aa(lp1163
(I333
I153
g43
tp1164
aa(lp1165
(I405
I144
g64
tp1166
aa(lp1167
(I351
I261
g2
tp1168
aa(lp1169
(I315
I180
g34
tp1170
aa(lp1171
(I423
I225
g64
tp1172
aa(lp1173
(I387
I171
g64
tp1174
aa(lp1175
(I423
I81
g29
tp1176
aa(lp1177
(I351
I144
g235
tp1178
aa(lp1179
(I351
I198
g64
tp1180
aa(lp1181
(I423
I252
g26
tp1182
aa(lp1183
(I405
I90
g67
tp1184
aa(lp1185
(I351
I72
g93
tp1186
aa(lp1187
(I315
I162
g2
tp1188
aa(lp1189
(I369
I162
g78
tp1190
aa(lp1191
(I405
I243
g58
tp1192
aa(lp1193
(I333
I144
g14
tp1194
aa(lp1195
(I405
I108
g26
tp1196
aa(lp1197
(I405
I153
g53
tp1198
aa(lp1199
(I423
I180
g132
tp1200
aa(lp1201
(I387
I252
g61
tp1202
aa(lp1203
(I369
I171
g58
tp1204
aa(lp1205
(I387
I261
g20
tp1206
aa(lp1207
(I423
I243
g70
tp1208
aa(lp1209
(I315
I207
g67
tp1210
aa(lp1211
(I423
I135
g14
tp1212
aa(lp1213
(I423
I180
g64
tp1214
aa(lp1215
(I369
I153
g26
tp1216
aa(lp1217
(I387
I207
g73
tp1218
aa(lp1219
(I405
I108
g73
tp1220
aa(lp1221
(I369
I162
g67
tp1222
aa(lp1223
(I351
I234
g14
tp1224
aa(lp1225
(I423
I99
g11
tp1226
aa(lp1227
(I477
I108
g70
tp1228
aa(lp1229
(I459
I117
g53
tp1230
aa(lp1231
(I549
I225
g81
tp1232
aa(lp1233
(I549
I135
g8
tp1234
aa(lp1235
(I567
I99
g73
tp1236
aa(lp1237
(I477
I99
g2
tp1238
aa(lp1239
(I567
I153
g67
tp1240
aa(lp1241
(I549
I144
g235
tp1242
aa(lp1243
(I549
I270
g26
tp1244
aa(lp1245
(I513
I261
g29
tp1246
aa(lp1247
(I531
I144
g132
tp1248
aa(lp1249
(I549
I153
g73
tp1250
aa(lp1251
(I495
I198
g14
tp1252
aa(lp1253
(I495
I153
g29
tp1254
aa(lp1255
(I477
I180
g14
tp1256
aa(lp1257
(I495
I252
g43
tp1258
aa(lp1259
(I531
I225
g235
tp1260
aa(lp1261
(I531
I117
g17
tp1262
aa(lp1263
(I459
I90
g14
tp1264
aa(lp1265
(I459
I225
g81
tp1266
aa(lp1267
(I495
I117
g64
tp1268
aa(lp1269
(I477
I180
g26
tp1270
aa(lp1271
(I513
I171
g11
tp1272
aa(lp1273
(I513
I81
g50
tp1274
aa(lp1275
(I513
I261
g34
tp1276
aa(lp1277
(I531
I189
g50
tp1278
aa(lp1279
(I549
I198
g17
tp1280
aa(lp1281
(I495
I207
g58
tp1282
aa(lp1283
(I513
I189
g8
tp1284
aa(lp1285
(I459
I135
g2
tp1286
aa(lp1287
(I459
I108
g93
tp1288
aa(lp1289
(I477
I162
g43
tp1290
aa(lp1291
(I567
I90
g81
tp1292
aa(lp1293
(I567
I162
g132
tp1294
aa(lp1295
(I459
I99
g17
tp1296
aa(lp1297
(I459
I225
g81
tp1298
aa(lp1299
(I477
I207
g61
tp1300
aa(lp1301
(I549
I126
g5
tp1302
aa(lp1303
(I567
I252
g61
tp1304
aa(lp1305
(I531
I180
g235
tp1306
aa(lp1307
(I477
I171
g64
tp1308
aa(lp1309
(I513
I180
g17
tp1310
aa(lp1311
(I549
I207
g2
tp1312
aa(lp1313
(I513
I171
g20
tp1314
aa(lp1315
(I459
I216
g53
tp1316
aa(lp1317
(I531
I216
g26
tp1318
aa(lp1319
(I567
I90
g43
tp1320
aa(lp1321
(I477
I216
g67
tp1322
aa(lp1323
(I477
I225
g64
tp1324
aa(lp1325
(I513
I243
g235
tp1326
aa(lp1327
(I495
I243
g11
tp1328
aa(lp1329
(I477
I261
g17
tp1330
aa(lp1331
(I567
I99
g11
tp1332
aa(lp1333
(I513
I198
g17
tp1334
aa(lp1335
(I567
I207
g14
tp1336
aa(lp1337
(I477
I117
g53
tp1338
aa(lp1339
(I567
I90
g11
tp1340
aa(lp1341
(I567
I216
g58
tp1342
aa(lp1343
(I495
I90
g20
tp1344
aa(lp1345
(I477
I171
g61
tp1346
aa(lp1347
(I531
I81
g61
tp1348
aa(lp1349
(I495
I171
g78
tp1350
aa(lp1351
(I567
I225
g14
tp1352
aa(lp1353
(I567
I90
g93
tp1354
aa(lp1355
(I567
I261
g43
tp1356
aa(lp1357
(I495
I261
g64
tp1358
aa(lp1359
(I459
I216
g61
tp1360
aa(lp1361
(I531
I99
g17
tp1362
aa(lp1363
(I477
I126
g2
tp1364
aa(lp1365
(I495
I99
g34
tp1366
aa(lp1367
(I459
I270
g235
tp1368
aa(lp1369
(I567
I252
g23
tp1370
aa(lp1371
(I513
I198
g34
tp1372
aa(lp1373
(I567
I162
g78
tp1374
aa(lp1375
(I495
I90
g73
tp1376
aa(lp1377
(I531
I162
g64
tp1378
aa(lp1379
(I495
I153
g23
tp1380
aa(lp1381
(I513
I135
g70
tp1382
aa(lp1383
(I495
I225
g81
tp1384
aa(lp1385
(I567
I270
g34
tp1386
aa(lp1387
(I513
I99
g73
tp1388
aa(lp1389
(I495
I90
g132
tp1390
aa(lp1391
(I567
I261
g29
tp1392
aa(lp1393
(I513
I207
g58
tp1394
aa(lp1395
(I549
I108
g88
tp1396
aa(lp1397
(I567
I162
g53
tp1398
aa(lp1399
(I531
I171
g5
tp1400
aa(lp1401
(I495
I72
g93
tp1402
aa(lp1403
(I531
I252
g53
tp1404
aa(lp1405
(I549
I207
g14
tp1406
aa(lp1407
(I477
I81
g8
tp1408
aa(lp1409
(I513
I81
g20
tp1410
aa(lp1411
(I459
I162
g26
tp1412
aa(lp1413
(I459
I189
g132
tp1414
aa(lp1415
(I477
I126
g20
tp1416
aa(lp1417
(I549
I198
g26
tp1418
aa(lp1419
(I549
I108
g11
tp1420
aa(lp1421
(I531
I198
g73
tp1422
aa(lp1423
(I567
I162
g73
tp1424
aa(lp1425
(I531
I117
g58
tp1426
aa(lp1427
(I459
I207
g5
tp1428
aa(lp1429
(I495
I126
g43
tp1430
aa(lp1431
(I459
I117
g61
tp1432
aa(lp1433
(I549
I198
g34
tp1434
aa(lp1435
(I495
I153
g34
tp1436
aa(lp1437
(I513
I108
g64
tp1438
aa(lp1439
(I459
I216
g20
tp1440
aa(lp1441
(I459
I261
g88
tp1442
aa(lp1443
(I531
I135
g67
tp1444
aa(lp1445
(I549
I207
g5
tp1446
aa(lp1447
(I459
I144
g43
tp1448
aa(lp1449
(I477
I243
g17
tp1450
aa(lp1451
(I495
I108
g81
tp1452
aa(lp1453
(I549
I234
g64
tp1454
aa(lp1455
(I477
I270
g78
tp1456
aa(lp1457
(I567
I90
g88
tp1458
aa(lp1459
(I477
I144
g235
tp1460
aa(lp1461
(I495
I216
g61
tp1462
aa(lp1463
(I567
I225
g26
tp1464
aa(lp1465
(I477
I108
g73
tp1466
aa(lp1467
(I495
I99
g2
tp1468
aa(lp1469
(I459
I225
g2
tp1470
aa(lp1471
(I531
I72
g17
tp1472
aa(lp1473
(I459
I207
g29
tp1474
aa(lp1475
(I495
I90
g2
tp1476
aa(lp1477
(I495
I162
g17
tp1478
aa(lp1479
(I459
I189
g58
tp1480
aa(lp1481
(I531
I126
g93
tp1482
aa(lp1483
(I459
I171
g17
tp1484
aa(lp1485
(I549
I117
g23
tp1486
aa(lp1487
(I513
I243
g29
tp1488
aa(lp1489
(I531
I234
g64
tp1490
aa(lp1491
(I495
I81
g14
tp1492
aa(lp1493
(I477
I81
g78
tp1494
aa(lp1495
(I567
I171
g11
tp1496
aa(lp1497
(I549
I144
g17
tp1498
aa(lp1499
(I459
I225
g2
tp1500
aa(lp1501
(I549
I180
g53
tp1502
aa(lp1503
(I567
I144
g29
tp1504
aa(lp1505
(I549
I171
g53
tp1506
aa(lp1507
(I531
I225
g235
tp1508
aa(lp1509
(I459
I135
g70
tp1510
aa(lp1511
(I567
I189
g61
tp1512
aa(lp1513
(I513
I261
g73
tp1514
aa(lp1515
(I477
I207
g78
tp1516
aa(lp1517
(I477
I90
g88
tp1518
aa(lp1519
(I531
I162
g14
tp1520
aa(lp1521
(I495
I225
g67
tp1522
aa(lp1523
(I567
I162
g93
tp1524
aa(lp1525
(I549
I135
g20
tp1526
aa(lp1527
(I531
I234
g11
tp1528
aa(lp1529
(I513
I171
g5
tp1530
aa(lp1531
(I459
I117
g20
tp1532
aa(lp1533
(I495
I162
g70
tp1534
aa(lp1535
(I513
I243
g58
tp1536
aa(lp1537
(I531
I135
g23
tp1538
aa(lp1539
(I513
I108
g26
tp1540
aa(lp1541
(I495
I243
g50
tp1542
aa(lp1543
(I477
I126
g23
tp1544
aa(lp1545
(I513
I189
g132
tp1546
aa(lp1547
(I459
I225
g5
tp1548
aa(lp1549
(I477
I216
g93
tp1550
aa(lp1551
(I459
I90
g70
tp1552
aa(lp1553
(I549
I135
g14
tp1554
aa(lp1555
(I495
I234
g14
tp1556
aa(lp1557
(I549
I180
g20
tp1558
aa(lp1559
(I513
I270
g64
tp1560
aa(lp1561
(I459
I261
g58
tp1562
aa(lp1563
(I549
I108
g235
tp1564
aa(lp1565
(I459
I81
g43
tp1566
aa(lp1567
(I513
I198
g23
tp1568
aa(lp1569
(I567
I189
g61
tp1570
aa(lp1571
(I567
I153
g58
tp1572
aa(lp1573
(I477
I207
g64
tp1574
aa(lp1575
(I567
I162
g132
tp1576
aa(lp1577
(I495
I198
g88
tp1578
aa(lp1579
(I495
I225
g29
tp1580
aa(lp1581
(I477
I261
g81
tp1582
aa(lp1583
(I459
I270
g78
tp1584
aa(lp1585
(I567
I108
g2
tp1586
aa(lp1587
(I495
I171
g53
tp1588
aa(lp1589
(I495
I171
g58
tp1590
aa(lp1591
(I531
I135
g93
tp1592
aa(lp1593
(I567
I189
g70
tp1594
aa(lp1595
(I513
I189
g93
tp1596
aa(lp1597
(I459
I270
g132
tp1598
aa(lp1599
(I513
I252
g235
tp1600
aa(lp1601
(I495
I225
g23
tp1602
aa(lp1603
(I549
I234
g11
tp1604
aa(lp1605
(I513
I189
g70
tp1606
aa(lp1607
(I513
I225
g20
tp1608
aa(lp1609
(I495
I180
g26
tp1610
aa(lp1611
(I495
I99
g88
tp1612
aa(lp1613
(I477
I189
g132
tp1614
aa(lp1615
(I459
I171
g43
tp1616
aa(lp1617
(I531
I108
g78
tp1618
aa(lp1619
(I531
I126
g64
tp1620
aa(lp1621
(I459
I261
g11
tp1622
aa(lp1623
(I531
I180
g20
tp1624
aa(lp1625
(I477
I99
g235
tp1626
aa(lp1627
(I639
I234
g20
tp1628
aa(lp1629
(I711
I144
g26
tp1630
aa(lp1631
(I711
I99
g58
tp1632
aa(lp1633
(I621
I72
g88
tp1634
aa(lp1635
(I603
I189
g53
tp1636
aa(lp1637
(I657
I90
g53
tp1638
aa(lp1639
(I711
I243
g34
tp1640
aa(lp1641
(I639
I72
g88
tp1642
aa(lp1643
(I621
I234
g50
tp1644
aa(lp1645
(I657
I198
g93
tp1646
aa(lp1647
(I657
I135
g2
tp1648
aa(lp1649
(I693
I171
g53
tp1650
aa(lp1651
(I675
I225
g34
tp1652
aa(lp1653
(I711
I261
g53
tp1654
aa(lp1655
(I639
I234
g64
tp1656
aa(lp1657
(I711
I72
g23
tp1658
aa(lp1659
(I639
I216
g73
tp1660
aa(lp1661
(I675
I171
g58
tp1662
aa(lp1663
(I693
I261
g34
tp1664
aa(lp1665
(I711
I270
g20
tp1666
aa(lp1667
(I639
I216
g26
tp1668
aa(lp1669
(I603
I153
g34
tp1670
aa(lp1671
(I657
I252
g61
tp1672
aa(lp1673
(I621
I72
g20
tp1674
aa(lp1675
(I675
I252
g26
tp1676
aa(lp1677
(I639
I216
g11
tp1678
aa(lp1679
(I675
I126
g235
tp1680
aa(lp1681
(I711
I189
g11
tp1682
aa(lp1683
(I621
I225
g81
tp1684
aa(lp1685
(I639
I180
g43
tp1686
aa(lp1687
(I639
I180
g8
tp1688
aa(lp1689
(I603
I126
g70
tp1690
aa(lp1691
(I603
I99
g70
tp1692
aa(lp1693
(I711
I189
g235
tp1694
aa(lp1695
(I675
I234
g50
tp1696
aa(lp1697
(I675
I90
g78
tp1698
aa(lp1699
(I639
I180
g61
tp1700
aa(lp1701
(I621
I261
g26
tp1702
aa(lp1703
(I603
I72
g20
tp1704
aa(lp1705
(I621
I171
g88
tp1706
aa(lp1707
(I675
I153
g70
tp1708
aa(lp1709
(I693
I108
g26
tp1710
aa(lp1711
(I639
I261
g64
tp1712
aa(lp1713
(I675
I72
g8
tp1714
aa(lp1715
(I621
I225
g17
tp1716
aa(lp1717
(I639
I108
g8
tp1718
aa(lp1719
(I621
I144
g5
tp1720
aa(lp1721
(I621
I225
g20
tp1722
aa(lp1723
(I657
I72
g67
tp1724
aa(lp1725
(I675
I189
g20
tp1726
aa(lp1727
(I693
I225
g29
tp1728
aa(lp1729
(I621
I99
g53
tp1730
aa(lp1731
(I675
I90
g43
tp1732
aa(lp1733
(I639
I198
g20
tp1734
aa(lp1735
(I639
I225
g235
tp1736
aa(lp1737
(I675
I180
g50
tp1738
aa(lp1739
(I675
I189
g88
tp1740
aa(lp1741
(I693
I99
g8
tp1742
aa(lp1743
(I711
I225
g58
tp1744
aa(lp1745
(I657
I198
g14
tp1746
aa(lp1747
(I657
I144
g70
tp1748
aa(lp1749
(I621
I117
g11
tp1750
aa(lp1751
(I693
I171
g23
tp1752
aa(lp1753
(I675
I135
g73
tp1754
aa(lp1755
(I693
I225
g70
tp1756
aa(lp1757
(I639
I243
g17
tp1758
aa(lp1759
(I711
I252
g81
tp1760
aa(lp1761
(I657
I225
g132
tp1762
aa(lp1763
(I639
I207
g5
tp1764
aa(lp1765
(I711
I117
g61
tp1766
aa(lp1767
(I621
I72
g53
tp1768
aa(lp1769
(I657
I81
g5
tp1770
aa(lp1771
(I603
I108
g64
tp1772
aa(lp1773
(I639
I117
g17
tp1774
aa(lp1775
(I621
I162
g88
tp1776
aa(lp1777
(I621
I225
g61
tp1778
aa(lp1779
(I621
I126
g53
tp1780
aa(lp1781
(I639
I261
g2
tp1782
aa(lp1783
(I693
I72
g61
tp1784
aa(lp1785
(I657
I126
g50
tp1786
aa(lp1787
(I675
I234
g64
tp1788
aa(lp1789
(I603
I162
g235
tp1790
aa(lp1791
(I711
I216
g8
tp1792
aa(lp1793
(I639
I225
g2
tp1794
aa(lp1795
(I657
I261
g61
tp1796
aa(lp1797
(I603
I198
g34
tp1798
aa(lp1799
(I693
I270
g67
tp1800
aa(lp1801
(I639
I81
g23
tp1802
aa(lp1803
(I693
I144
g81
tp1804
aa(lp1805
(I657
I225
g70
tp1806
aa(lp1807
(I657
I189
g64
tp1808
aa(lp1809
(I603
I81
g70
tp1810
aa(lp1811
(I675
I198
g2
tp1812
aa(lp1813
(I603
I243
g81
tp1814
aa(lp1815
(I693
I189
g17
tp1816
aa(lp1817
(I603
I243
g53
tp1818
aa(lp1819
(I711
I126
g61
tp1820
aa(lp1821
(I603
I99
g61
tp1822
aa(lp1823
(I603
I252
g34
tp1824
aa(lp1825
(I603
I99
g11
tp1826
aa(lp1827
(I603
I243
g23
tp1828
aa(lp1829
(I639
I189
g23
tp1830
aa(lp1831
(I639
I99
g67
tp1832
aa(lp1833
(I603
I261
g93
tp1834
aa(lp1835
(I675
I261
g26
tp1836
aa(lp1837
(I675
I81
g235
tp1838
aa(lp1839
(I603
I225
g67
tp1840
aa(lp1841
(I657
I81
g14
tp1842
aa(lp1843
(I603
I90
g67
tp1844
aa(lp1845
(I639
I261
g23
tp1846
aa(lp1847
(I603
I153
g93
tp1848
aa(lp1849
(I693
I162
g20
tp1850
aa(lp1851
(I621
I144
g26
tp1852
aa(lp1853
(I621
I243
g67
tp1854
aa(lp1855
(I639
I180
g8
tp1856
aa(lp1857
(I675
I126
g70
tp1858
aa(lp1859
(I621
I234
g34
tp1860
aa(lp1861
(I639
I108
g2
tp1862
aa(lp1863
(I675
I99
g17
tp1864
aa(lp1865
(I603
I261
g73
tp1866
aa(lp1867
(I621
I252
g11
tp1868
aa(lp1869
(I711
I99
g50
tp1870
aa(lp1871
(I639
I81
g5
tp1872
aa(lp1873
(I639
I72
g20
tp1874
aa(lp1875
(I711
I198
g70
tp1876
aa(lp1877
(I657
I261
g29
tp1878
aa(lp1879
(I675
I252
g50
tp1880
aa(lp1881
(I675
I270
g14
tp1882
aa(lp1883
(I621
I153
g8
tp1884
aa(lp1885
(I621
I162
g34
tp1886
aa(lp1887
(I675
I225
g29
tp1888
aa(lp1889
(I675
I90
g43
tp1890
aa(lp1891
(I603
I108
g61
tp1892
aa(lp1893
(I621
I171
g43
tp1894
aa(lp1895
(I711
I243
g61
tp1896
aa(lp1897
(I603
I234
g11
tp1898
aa(lp1899
(I693
I234
g67
tp1900
aa(lp1901
(I657
I81
g17
tp1902
aa(lp1903
(I675
I243
g70
tp1904
aa(lp1905
(I693
I144
g61
tp1906
aa(lp1907
(I711
I135
g78
tp1908
aa(lp1909
(I639
I126
g23
tp1910
aa(lp1911
(I603
I171
g50
tp1912
aa(lp1913
(I657
I99
g20
tp1914
aa(lp1915
(I639
I99
g73
tp1916
aa(lp1917
(I621
I81
g5
tp1918
aa(lp1919
(I693
I252
g8
tp1920
aa(lp1921
(I675
I108
g78
tp1922
aa(lp1923
(I621
I90
g20
tp1924
aa(lp1925
(I693
I171
g70
tp1926
aa(lp1927
(I603
I81
g73
tp1928
aa(lp1929
(I657
I216
g53
tp1930
aa(lp1931
(I711
I180
g61
tp1932
aa(lp1933
(I621
I99
g73
tp1934
aa(lp1935
(I621
I189
g26
tp1936
aa(lp1937
(I639
I234
g64
tp1938
aa(lp1939
(I693
I81
g11
tp1940
aa(lp1941
(I711
I198
g235
tp1942
aa(lp1943
(I621
I72
g70
tp1944
aa(lp1945
(I711
I234
g23
tp1946
aa(lp1947
(I693
I189
g20
tp1948
aa(lp1949
(I603
I198
g70
tp1950
aa(lp1951
(I621
I252
g53
tp1952
aa(lp1953
(I693
I99
g26
tp1954
aa(lp1955
(I621
I207
g58
tp1956
aa(lp1957
(I639
I144
g61
tp1958
aa(lp1959
(I693
I189
g70
tp1960
aa(lp1961
(I711
I198
g235
tp1962
aa(lp1963
(I711
I216
g67
tp1964
aa(lp1965
(I711
I135
g53
tp1966
aa(lp1967
(I711
I252
g93
tp1968
aa(lp1969
(I603
I198
g5
tp1970
aa(lp1971
(I675
I180
g61
tp1972
aa(lp1973
(I621
I81
g14
tp1974
aa(lp1975
(I675
I207
g11
tp1976
aa(lp1977
(I603
I117
g93
tp1978
aa(lp1979
(I603
I99
g73
tp1980
aa(lp1981
(I657
I198
g53
tp1982
aa(lp1983
(I711
I81
g11
tp1984
aa(lp1985
(I657
I99
g14
tp1986
aa(lp1987
(I639
I72
g61
tp1988
aa(lp1989
(I675
I198
g23
tp1990
aa(lp1991
(I693
I72
g5
tp1992
aa(lp1993
(I711
I72
g26
tp1994
aa(lp1995
(I657
I99
g20
tp1996
aa(lp1997
(I657
I171
g34
tp1998
aa(lp1999
(I639
I162
g70
tp2000
aa(lp2001
(I621
I261
g64
tp2002
aa(lp2003
(I657
I135
g58
tp2004
aa(lp2005
(I657
I90
g73
tp2006
aa(lp2007
(I603
I207
g235
tp2008
aa(lp2009
(I675
I171
g67
tp2010
aa(lp2011
(I603
I162
g67
tp2012
aa(lp2013
(I693
I99
g64
tp2014
aa(lp2015
(I621
I99
g43
tp2016
aa(lp2017
(I603
I99
g235
tp2018
aa(lp2019
(I639
I117
g34
tp2020
aa(lp2021
(I711
I162
g5
tp2022
aa(lp2023
(I675
I72
g53
tp2024
aa(lp2025
(I657
I198
g61
tp2026
aa(lp2027
(I855
I90
g43
tp2028
aa(lp2029
(I765
I135
g78
tp2030
aa(lp2031
(I783
I189
g132
tp2032
aa(lp2033
(I747
I90
g88
tp2034
aa(lp2035
(I765
I234
g2
tp2036
aa(lp2037
(I783
I270
g132
tp2038
aa(lp2039
(I801
I270
g50
tp2040
aa(lp2041
(I819
I261
g132
tp2042
aa(lp2043
(I801
I144
g61
tp2044
aa(lp2045
(I819
I198
g26
tp2046
aa(lp2047
(I783
I189
g29
tp2048
aa(lp2049
(I819
I180
g2
tp2050
aa(lp2051
(I837
I252
g73
tp2052
aa(lp2053
(I747
I243
g23
tp2054
aa(lp2055
(I837
I117
g235
tp2056
aa(lp2057
(I765
I126
g26
tp2058
aa(lp2059
(I855
I252
g29
tp2060
aa(lp2061
(I783
I189
g5
tp2062
aa(lp2063
(I819
I72
g78
tp2064
aa(lp2065
(I801
I198
g64
tp2066
aa(lp2067
(I837
I81
g53
tp2068
aa(lp2069
(I837
I243
g78
tp2070
aa(lp2071
(I855
I243
g5
tp2072
aa(lp2073
(I765
I198
g67
tp2074
aa(lp2075
(I837
I81
g78
tp2076
aa(lp2077
(I837
I243
g61
tp2078
aa(lp2079
(I765
I81
g61
tp2080
aa(lp2081
(I783
I180
g132
tp2082
aa(lp2083
(I783
I270
g81
tp2084
aa(lp2085
(I765
I162
g70
tp2086
aa(lp2087
(I747
I189
g81
tp2088
aa(lp2089
(I783
I90
g61
tp2090
aa(lp2091
(I801
I270
g61
tp2092
aa(lp2093
(I783
I234
g88
tp2094
aa(lp2095
(I855
I126
g132
tp2096
aa(lp2097
(I747
I180
g93
tp2098
aa(lp2099
(I855
I126
g73
tp2100
aa(lp2101
(I765
I81
g29
tp2102
aa(lp2103
(I747
I117
g29
tp2104
aa(lp2105
(I765
I81
g53
tp2106
aa(lp2107
(I747
I153
g88
tp2108
aa(lp2109
(I837
I144
g67
tp2110
aa(lp2111
(I837
I270
g93
tp2112
aa(lp2113
(I747
I90
g64
tp2114
aa(lp2115
(I765
I108
g78
tp2116
aa(lp2117
(I747
I198
g23
tp2118
aa(lp2119
(I801
I189
g53
tp2120
aa(lp2121
(I783
I108
g11
tp2122
aa(lp2123
(I837
I189
g11
tp2124
aa(lp2125
(I747
I162
g20
tp2126
aa(lp2127
(I765
I252
g14
tp2128
aa(lp2129
(I783
I144
g73
tp2130
aa(lp2131
(I765
I261
g2
tp2132
aa(lp2133
(I747
I243
g26
tp2134
aa(lp2135
(I855
I234
g88
tp2136
aa(lp2137
(I855
I81
g78
tp2138
aa(lp2139
(I801
I225
g88
tp2140
aa(lp2141
(I819
I225
g64
tp2142
aa(lp2143
(I837
I135
g34
tp2144
aa(lp2145
(I819
I81
g14
tp2146
aa(lp2147
(I783
I225
g78
tp2148
aa(lp2149
(I819
I270
g20
tp2150
aa(lp2151
(I765
I207
g17
tp2152
aa(lp2153
(I765
I117
g14
tp2154
aa(lp2155
(I747
I117
g11
tp2156
aa(lp2157
(I819
I234
g29
tp2158
aa(lp2159
(I819
I135
g235
tp2160
aa(lp2161
(I819
I135
g73
tp2162
aa(lp2163
(I855
I261
g64
tp2164
aa(lp2165
(I819
I81
g235
tp2166
aa(lp2167
(I783
I189
g93
tp2168
aa(lp2169
(I819
I189
g29
tp2170
aa(lp2171
(I765
I261
g8
tp2172
aa(lp2173
(I819
I81
g61
tp2174
aa(lp2175
(I855
I270
g235
tp2176
aa(lp2177
(I819
I153
g70
tp2178
aa(lp2179
(I819
I234
g8
tp2180
aa(lp2181
(I855
I171
g61
tp2182
aa(lp2183
(I747
I189
g8
tp2184
aa(lp2185
(I819
I99
g132
tp2186
aa(lp2187
(I765
I252
g23
tp2188
aa(lp2189
(I783
I225
g2
tp2190
aa(lp2191
(I747
I234
g43
tp2192
aa(lp2193
(I765
I144
g14
tp2194
aa(lp2195
(I837
I144
g14
tp2196
aa(lp2197
(I747
I225
g17
tp2198
aa(lp2199
(I765
I216
g20
tp2200
aa(lp2201
(I801
I90
g8
tp2202
aa(lp2203
(I819
I252
g235
tp2204
aa(lp2205
(I855
I126
g11
tp2206
aa(lp2207
(I837
I81
g29
tp2208
aa(lp2209
(I783
I153
g88
tp2210
aa(lp2211
(I801
I72
g73
tp2212
aa(lp2213
(I855
I144
g34
tp2214
aa(lp2215
(I801
I153
g17
tp2216
aa(lp2217
(I837
I99
g34
tp2218
aa(lp2219
(I765
I117
g11
tp2220
aa(lp2221
(I747
I198
g73
tp2222
aa(lp2223
(I855
I243
g34
tp2224
aa(lp2225
(I801
I198
g2
tp2226
aa(lp2227
(I783
I171
g26
tp2228
aa(lp2229
(I783
I72
g17
tp2230
aa(lp2231
(I855
I216
g53
tp2232
aa(lp2233
(I855
I216
g26
tp2234
aa(lp2235
(I747
I270
g34
tp2236
aa(lp2237
(I819
I252
g58
tp2238
aa(lp2239
(I747
I207
g8
tp2240
aa(lp2241
(I819
I72
g64
tp2242
aa(lp2243
(I801
I135
g8
tp2244
aa(lp2245
(I783
I261
g61
tp2246
aa(lp2247
(I765
I108
g53
tp2248
aa(lp2249
(I783
I252
g5
tp2250
aa(lp2251
(I837
I90
g50
tp2252
aa(lp2253
(I783
I180
g73
tp2254
aa(lp2255
(I819
I189
g23
tp2256
aa(lp2257
(I765
I126
g93
tp2258
aa(lp2259
(I837
I90
g81
tp2260
aa(lp2261
(I783
I225
g67
tp2262
aa(lp2263
(I783
I234
g43
tp2264
aa(lp2265
(I765
I198
g50
tp2266
aa(lp2267
(I765
I243
g88
tp2268
aa(lp2269
(I747
I216
g64
tp2270
aa(lp2271
(I783
I180
g20
tp2272
aa(lp2273
(I801
I153
g23
tp2274
aa(lp2275
(I783
I216
g50
tp2276
aa(lp2277
(I837
I81
g43
tp2278
aa(lp2279
(I837
I90
g23
tp2280
aa(lp2281
(I801
I216
g8
tp2282
aa(lp2283
(I855
I270
g58
tp2284
aa(lp2285
(I801
I261
g61
tp2286
aa(lp2287
(I855
I108
g235
tp2288
aa(lp2289
(I801
I72
g78
tp2290
aa(lp2291
(I783
I225
g11
tp2292
aa(lp2293
(I819
I135
g43
tp2294
aa(lp2295
(I783
I162
g235
tp2296
aa(lp2297
(I801
I153
g5
tp2298
aa(lp2299
(I801
I252
g26
tp2300
aa(lp2301
(I765
I270
g61
tp2302
aa(lp2303
(I819
I126
g5
tp2304
aa(lp2305
(I747
I198
g58
tp2306
aa(lp2307
(I765
I261
g70
tp2308
aa(lp2309
(I747
I81
g29
tp2310
aa(lp2311
(I747
I72
g23
tp2312
aa(lp2313
(I801
I252
g53
tp2314
aa(lp2315
(I747
I117
g2
tp2316
aa(lp2317
(I783
I90
g235
tp2318
aa(lp2319
(I765
I99
g14
tp2320
aa(lp2321
(I765
I72
g8
tp2322
aa(lp2323
(I837
I261
g2
tp2324
aa(lp2325
(I819
I99
g50
tp2326
aa(lp2327
(I801
I207
g70
tp2328
aa(lp2329
(I837
I117
g70
tp2330
aa(lp2331
(I855
I153
g8
tp2332
aa(lp2333
(I801
I171
g11
tp2334
aa(lp2335
(I765
I99
g5
tp2336
aa(lp2337
(I855
I216
g235
tp2338
aa(lp2339
(I747
I252
g2
tp2340
aa(lp2341
(I819
I225
g29
tp2342
aa(lp2343
(I783
I261
g53
tp2344
aa(lp2345
(I837
I261
g132
tp2346
aa(lp2347
(I765
I72
g88
tp2348
aa(lp2349
(I801
I126
g58
tp2350
aa(lp2351
(I855
I162
g23
tp2352
aa(lp2353
(I747
I99
g88
tp2354
aa(lp2355
(I855
I261
g58
tp2356
aa(lp2357
(I783
I144
g88
tp2358
aa(lp2359
(I855
I216
g26
tp2360
aa(lp2361
(I855
I117
g14
tp2362
aa(lp2363
(I783
I162
g132
tp2364
aa(lp2365
(I855
I126
g34
tp2366
aa(lp2367
(I783
I252
g2
tp2368
aa(lp2369
(I765
I153
g11
tp2370
aa(lp2371
(I801
I189
g235
tp2372
aa(lp2373
(I819
I126
g20
tp2374
aa(lp2375
(I765
I72
g58
tp2376
aa(lp2377
(I765
I135
g93
tp2378
aa(lp2379
(I801
I117
g20
tp2380
aa(lp2381
(I765
I207
g23
tp2382
aa(lp2383
(I801
I225
g88
tp2384
aa(lp2385
(I747
I90
g67
tp2386
aa(lp2387
(I783
I90
g29
tp2388
aa(lp2389
(I783
I207
g43
tp2390
aa(lp2391
(I801
I252
g34
tp2392
aa(lp2393
(I801
I117
g14
tp2394
aa(lp2395
(I855
I90
g23
tp2396
aa(lp2397
(I765
I225
g20
tp2398
aa(lp2399
(I801
I243
g88
tp2400
aa(lp2401
(I801
I162
g64
tp2402
aa(lp2403
(I765
I198
g14
tp2404
aa(lp2405
(I819
I225
g67
tp2406
aa(lp2407
(I783
I180
g53
tp2408
aa(lp2409
(I747
I243
g2
tp2410
aa(lp2411
(I819
I171
g26
tp2412
aa(lp2413
(I765
I81
g81
tp2414
aa(lp2415
(I801
I72
g53
tp2416
aa(lp2417
(I855
I189
g58
tp2418
aa(lp2419
(I783
I126
g20
tp2420
aa(lp2421
(I747
I198
g14
tp2422
aa(lp2423
(I855
I243
g58
tp2424
aa(lp2425
(I855
I81
g20
tp2426
aa(lp2427
(I927
I252
g2
tp2428
aa(lp2429
(I909
I126
g81
tp2430
aa(lp2431
(I981
I207
g8
tp2432
aa(lp2433
(I891
I270
g8
tp2434
aa(lp2435
(I891
I90
g73
tp2436
aa(lp2437
(I945
I108
g50
tp2438
aa(lp2439
(I891
I252
g20
tp2440
aa(lp2441
(I945
I198
g43
tp2442
aa(lp2443
(I945
I90
g2
tp2444
aa(lp2445
(I999
I108
g20
tp2446
aa(lp2447
(I891
I207
g81
tp2448
aa(lp2449
(I909
I90
g70
tp2450
aa(lp2451
(I891
I243
g88
tp2452
aa(lp2453
(I909
I153
g26
tp2454
aa(lp2455
(I999
I252
g50
tp2456
aa(lp2457
(I891
I189
g34
tp2458
aa(lp2459
(I981
I198
g11
tp2460
aa(lp2461
(I981
I144
g20
tp2462
aa(lp2463
(I999
I243
g29
tp2464
aa(lp2465
(I963
I126
g53
tp2466
aa(lp2467
(I927
I72
g67
tp2468
aa(lp2469
(I927
I171
g34
tp2470
aa(lp2471
(I909
I261
g70
tp2472
aa(lp2473
(I927
I270
g8
tp2474
aa(lp2475
(I981
I117
g20
tp2476
aa(lp2477
(I999
I252
g2
tp2478
aa(lp2479
(I891
I144
g11
tp2480
aa(lp2481
(I945
I153
g81
tp2482
aa(lp2483
(I909
I252
g93
tp2484
aa(lp2485
(I909
I135
g26
tp2486
aa(lp2487
(I999
I234
g61
tp2488
aa(lp2489
(I945
I144
g81
tp2490
aa(lp2491
(I945
I270
g93
tp2492
aa(lp2493
(I909
I243
g88
tp2494
aa(lp2495
(I981
I270
g23
tp2496
aa(lp2497
(I981
I162
g34
tp2498
aa(lp2499
(I963
I198
g132
tp2500
aa(lp2501
(I909
I252
g14
tp2502
aa(lp2503
(I891
I126
g53
tp2504
aa(lp2505
(I909
I198
g93
tp2506
aa(lp2507
(I999
I270
g23
tp2508
aa(lp2509
(I891
I108
g43
tp2510
aa(lp2511
(I909
I198
g81
tp2512
aa(lp2513
(I927
I171
g34
tp2514
aa(lp2515
(I945
I162
g34
tp2516
aa(lp2517
(I909
I81
g70
tp2518
aa(lp2519
(I891
I81
g73
tp2520
aa(lp2521
(I909
I72
g53
tp2522
aa(lp2523
(I909
I270
g29
tp2524
aa(lp2525
(I981
I135
g132
tp2526
aa(lp2527
(I963
I270
g61
tp2528
aa(lp2529
(I981
I180
g73
tp2530
aa(lp2531
(I999
I171
g14
tp2532
aa(lp2533
(I999
I81
g61
tp2534
aa(lp2535
(I999
I270
g5
tp2536
aa(lp2537
(I963
I99
g20
tp2538
aa(lp2539
(I927
I135
g78
tp2540
aa(lp2541
(I927
I198
g11
tp2542
aa(lp2543
(I945
I108
g132
tp2544
aa(lp2545
(I945
I108
g78
tp2546
aa(lp2547
(I891
I243
g17
tp2548
aa(lp2549
(I927
I207
g5
tp2550
aa(lp2551
(I999
I126
g93
tp2552
aa(lp2553
(I945
I198
g64
tp2554
aa(lp2555
(I981
I234
g53
tp2556
aa(lp2557
(I945
I99
g61
tp2558
aa(lp2559
(I927
I126
g26
tp2560
aa(lp2561
(I945
I162
g235
tp2562
aa(lp2563
(I999
I243
g50
tp2564
aa(lp2565
(I909
I261
g23
tp2566
aa(lp2567
(I963
I171
g73
tp2568
aa(lp2569
(I981
I117
g20
tp2570
aa(lp2571
(I999
I198
g23
tp2572
aa(lp2573
(I927
I117
g78
tp2574
aa(lp2575
(I927
I189
g26
tp2576
aa(lp2577
(I963
I81
g50
tp2578
aa(lp2579
(I891
I162
g29
tp2580
aa(lp2581
(I891
I198
g78
tp2582
aa(lp2583
(I927
I135
g29
tp2584
aa(lp2585
(I891
I243
g34
tp2586
aa(lp2587
(I999
I252
g17
tp2588
aa(lp2589
(I909
I81
g64
tp2590
aa(lp2591
(I999
I72
g78
tp2592
aa(lp2593
(I981
I234
g34
tp2594
aa(lp2595
(I909
I153
g11
tp2596
aa(lp2597
(I927
I180
g88
tp2598
aa(lp2599
(I891
I180
g34
tp2600
aa(lp2601
(I891
I81
g93
tp2602
aa(lp2603
(I981
I171
g11
tp2604
aa(lp2605
(I927
I108
g20
tp2606
aa(lp2607
(I999
I180
g5
tp2608
aa(lp2609
(I981
I234
g14
tp2610
aa(lp2611
(I909
I234
g64
tp2612
aa(lp2613
(I891
I261
g2
tp2614
aa(lp2615
(I999
I117
g73
tp2616
aa(lp2617
(I891
I126
g67
tp2618
aa(lp2619
(I981
I216
g23
tp2620
aa(lp2621
(I981
I108
g64
tp2622
aa(lp2623
(I999
I135
g43
tp2624
aa(lp2625
(I981
I153
g61
tp2626
aa(lp2627
(I909
I126
g14
tp2628
aa(lp2629
(I945
I72
g58
tp2630
aa(lp2631
(I945
I72
g53
tp2632
aa(lp2633
(I999
I171
g93
tp2634
aa(lp2635
(I891
I243
g58
tp2636
aa(lp2637
(I891
I108
g81
tp2638
aa(lp2639
(I927
I162
g78
tp2640
aa(lp2641
(I891
I126
g29
tp2642
aa(lp2643
(I981
I198
g20
tp2644
aa(lp2645
(I945
I72
g70
tp2646
aa(lp2647
(I963
I81
g58
tp2648
aa(lp2649
(I909
I189
g132
tp2650
aa(lp2651
(I981
I225
g88
tp2652
aa(lp2653
(I981
I207
g70
tp2654
aa(lp2655
(I909
I99
g11
tp2656
aa(lp2657
(I999
I135
g17
tp2658
aa(lp2659
(I927
I270
g26
tp2660
aa(lp2661
(I945
I261
g93
tp2662
aa(lp2663
(I891
I180
g235
tp2664
aa(lp2665
(I891
I270
g43
tp2666
aa(lp2667
(I999
I90
g93
tp2668
aa(lp2669
(I945
I189
g64
tp2670
aa(lp2671
(I963
I252
g14
tp2672
aa(lp2673
(I981
I198
g43
tp2674
aa(lp2675
(I963
I162
g64
tp2676
aa(lp2677
(I891
I135
g5
tp2678
aa(lp2679
(I945
I225
g53
tp2680
aa(lp2681
(I981
I135
g61
tp2682
aa(lp2683
(I945
I171
g34
tp2684
aa(lp2685
(I981
I189
g14
tp2686
aa(lp2687
(I909
I180
g2
tp2688
aa(lp2689
(I963
I234
g8
tp2690
aa(lp2691
(I999
I243
g11
tp2692
aa(lp2693
(I945
I261
g67
tp2694
aa(lp2695
(I999
I189
g64
tp2696
aa(lp2697
(I909
I117
g88
tp2698
aa(lp2699
(I963
I216
g81
tp2700
aa(lp2701
(I909
I72
g20
tp2702
aa(lp2703
(I981
I207
g58
tp2704
aa(lp2705
(I909
I99
g61
tp2706
aa(lp2707
(I963
I180
g53
tp2708
aa(lp2709
(I891
I270
g73
tp2710
aa(lp2711
(I927
I171
g67
tp2712
aa(lp2713
(I945
I225
g64
tp2714
aa(lp2715
(I909
I135
g67
tp2716
aa(lp2717
(I927
I234
g8
tp2718
aa(lp2719
(I909
I216
g78
tp2720
aa(lp2721
(I963
I261
g61
tp2722
aa(lp2723
(I963
I99
g2
tp2724
aa(lp2725
(I891
I198
g132
tp2726
aa(lp2727
(I963
I234
g78
tp2728
aa(lp2729
(I927
I234
g78
tp2730
aa(lp2731
(I963
I126
g73
tp2732
aa(lp2733
(I963
I189
g81
tp2734
aa(lp2735
(I963
I270
g43
tp2736
aa(lp2737
(I981
I270
g23
tp2738
aa(lp2739
(I927
I90
g78
tp2740
aa(lp2741
(I927
I126
g93
tp2742
aa(lp2743
(I999
I225
g50
tp2744
aa(lp2745
(I909
I189
g5
tp2746
aa(lp2747
(I909
I90
g5
tp2748
aa(lp2749
(I945
I72
g53
tp2750
aa(lp2751
(I963
I162
g81
tp2752
aa(lp2753
(I963
I225
g20
tp2754
aa(lp2755
(I963
I261
g29
tp2756
aa(lp2757
(I927
I117
g53
tp2758
aa(lp2759
(I999
I198
g26
tp2760
aa(lp2761
(I945
I81
g23
tp2762
aa(lp2763
(I909
I207
g2
tp2764
aa(lp2765
(I963
I225
g73
tp2766
aa(lp2767
(I891
I171
g23
tp2768
aa(lp2769
(I981
I207
g2
tp2770
aa(lp2771
(I999
I207
g64
tp2772
aa(lp2773
(I891
I243
g64
tp2774
aa(lp2775
(I945
I225
g88
tp2776
aa(lp2777
(I945
I72
g11
tp2778
aa(lp2779
(I963
I171
g73
tp2780
aa(lp2781
(I945
I189
g81
tp2782
aa(lp2783
(I981
I180
g43
tp2784
aa(lp2785
(I981
I243
g23
tp2786
aa(lp2787
(I927
I81
g50
tp2788
aa(lp2789
(I891
I207
g20
tp2790
aa(lp2791
(I891
I81
g26
tp2792
aa(lp2793
(I981
I180
g53
tp2794
aa(lp2795
(I981
I72
g70
tp2796
aa(lp2797
(I927
I72
g14
tp2798
aa(lp2799
(I927
I234
g23
tp2800
aa(lp2801
(I981
I72
g50
tp2802
aa(lp2803
(I891
I270
g61
tp2804
aa(lp2805
(I945
I126
g50
tp2806
aa(lp2807
(I981
I207
g73
tp2808
aa(lp2809
(I999
I216
g53
tp2810
aa(lp2811
(I909
I189
g64
tp2812
aa(lp2813
(I909
I117
g43
tp2814
aa(lp2815
(I945
I252
g5
tp2816
aa(lp2817
(I945
I234
g61
tp2818
aa(lp2819
(I909
I180
g34
tp2820
aa(lp2821
(I891
I126
g58
tp2822
aa(lp2823
(I927
I144
g34
tp2824
aa(lp2825
(I963
I171
g81
tp2826
aa(lp2827
(I1053
I252
g17
tp2828
aa(lp2829
(I1053
I270
g2
tp2830
aa(lp2831
(I1125
I99
g43
tp2832
aa(lp2833
(I1143
I135
g132
tp2834
aa(lp2835
(I1125
I216
g78
tp2836
aa(lp2837
(I1053
I90
g17
tp2838
aa(lp2839
(I1125
I99
g81
tp2840
aa(lp2841
(I1071
I252
g132
tp2842
aa(lp2843
(I1125
I252
g43
tp2844
aa(lp2845
(I1125
I81
g23
tp2846
aa(lp2847
(I1089
I117
g8
tp2848
aa(lp2849
(I1143
I126
g5
tp2850
aa(lp2851
(I1143
I180
g29
tp2852
aa(lp2853
(I1053
I99
g93
tp2854
aa(lp2855
(I1107
I108
g67
tp2856
aa(lp2857
(I1089
I225
g11
tp2858
aa(lp2859
(I1125
I261
g26
tp2860
aa(lp2861
(I1143
I144
g43
tp2862
aa(lp2863
(I1035
I225
g2
tp2864
aa(lp2865
(I1125
I90
g88
tp2866
aa(lp2867
(I1089
I81
g43
tp2868
aa(lp2869
(I1107
I252
g50
tp2870
aa(lp2871
(I1053
I162
g17
tp2872
aa(lp2873
(I1107
I144
g26
tp2874
aa(lp2875
(I1125
I270
g20
tp2876
aa(lp2877
(I1089
I243
g23
tp2878
aa(lp2879
(I1071
I180
g5
tp2880
aa(lp2881
(I1089
I144
g73
tp2882
aa(lp2883
(I1125
I234
g235
tp2884
aa(lp2885
(I1089
I153
g17
tp2886
aa(lp2887
(I1035
I72
g23
tp2888
aa(lp2889
(I1071
I261
g17
tp2890
aa(lp2891
(I1053
I90
g2
tp2892
aa(lp2893
(I1053
I153
g2
tp2894
aa(lp2895
(I1107
I171
g50
tp2896
aa(lp2897
(I1053
I252
g73
tp2898
aa(lp2899
(I1035
I234
g17
tp2900
aa(lp2901
(I1035
I198
g78
tp2902
aa(lp2903
(I1053
I198
g29
tp2904
aa(lp2905
(I1035
I189
g88
tp2906
aa(lp2907
(I1071
I216
g61
tp2908
aa(lp2909
(I1035
I126
g93
tp2910
aa(lp2911
(I1143
I126
g43
tp2912
aa(lp2913
(I1125
I225
g11
tp2914
aa(lp2915
(I1035
I225
g93
tp2916
aa(lp2917
(I1053
I261
g93
tp2918
aa(lp2919
(I1125
I198
g11
tp2920
aa(lp2921
(I1143
I198
g93
tp2922
aa(lp2923
(I1107
I117
g78
tp2924
aa(lp2925
(I1035
I243
g11
tp2926
aa(lp2927
(I1089
I207
g34
tp2928
aa(lp2929
(I1143
I99
g73
tp2930
aa(lp2931
(I1143
I225
g8
tp2932
aa(lp2933
(I1107
I171
g29
tp2934
aa(lp2935
(I1089
I108
g17
tp2936
aa(lp2937
(I1143
I153
g64
tp2938
aa(lp2939
(I1107
I207
g29
tp2940
aa(lp2941
(I1143
I153
g43
tp2942
aa(lp2943
(I1125
I90
g93
tp2944
aa(lp2945
(I1143
I243
g61
tp2946
aa(lp2947
(I1107
I126
g58
tp2948
aa(lp2949
(I1143
I153
g132
tp2950
aa(lp2951
(I1035
I81
g34
tp2952
aa(lp2953
(I1035
I108
g29
tp2954
aa(lp2955
(I1107
I171
g2
tp2956
aa(lp2957
(I1089
I126
g81
tp2958
aa(lp2959
(I1089
I261
g11
tp2960
aa(lp2961
(I1035
I81
g11
tp2962
aa(lp2963
(I1107
I180
g20
tp2964
aa(lp2965
(I1143
I126
g20
tp2966
aa(lp2967
(I1071
I81
g64
tp2968
aa(lp2969
(I1143
I234
g11
tp2970
aa(lp2971
(I1035
I81
g11
tp2972
aa(lp2973
(I1053
I225
g2
tp2974
aa(lp2975
(I1107
I225
g26
tp2976
aa(lp2977
(I1107
I207
g14
tp2978
aa(lp2979
(I1089
I117
g61
tp2980
aa(lp2981
(I1053
I234
g34
tp2982
aa(lp2983
(I1071
I171
g11
tp2984
aa(lp2985
(I1107
I243
g29
tp2986
aa(lp2987
(I1035
I243
g58
tp2988
aa(lp2989
(I1125
I108
g34
tp2990
aa(lp2991
(I1053
I117
g5
tp2992
aa(lp2993
(I1053
I198
g11
tp2994
aa(lp2995
(I1035
I135
g78
tp2996
aa(lp2997
(I1125
I99
g11
tp2998
aa(lp2999
(I1089
I252
g20
tp3000
aa(lp3001
(I1035
I252
g61
tp3002
aa(lp3003
(I1053
I171
g34
tp3004
aa(lp3005
(I1107
I216
g26
tp3006
aa(lp3007
(I1071
I234
g61
tp3008
aa(lp3009
(I1053
I234
g50
tp3010
aa(lp3011
(I1107
I234
g8
tp3012
aa(lp3013
(I1053
I189
g64
tp3014
aa(lp3015
(I1143
I270
g29
tp3016
aa(lp3017
(I1089
I99
g64
tp3018
aa(lp3019
(I1035
I171
g70
tp3020
aa(lp3021
(I1035
I135
g26
tp3022
aa(lp3023
(I1035
I252
g70
tp3024
aa(lp3025
(I1143
I225
g14
tp3026
aa(lp3027
(I1053
I108
g132
tp3028
aa(lp3029
(I1053
I81
g20
tp3030
aa(lp3031
(I1089
I225
g20
tp3032
aa(lp3033
(I1053
I180
g43
tp3034
aa(lp3035
(I1089
I225
g67
tp3036
aa(lp3037
(I1089
I225
g11
tp3038
aa(lp3039
(I1053
I144
g43
tp3040
aa(lp3041
(I1107
I153
g20
tp3042
aa(lp3043
(I1071
I135
g70
tp3044
aa(lp3045
(I1071
I189
g17
tp3046
aa(lp3047
(I1035
I207
g34
tp3048
aa(lp3049
(I1125
I207
g23
tp3050
aa(lp3051
(I1035
I126
g5
tp3052
aa(lp3053
(I1053
I72
g88
tp3054
aa(lp3055
(I1107
I144
g26
tp3056
aa(lp3057
(I1071
I180
g50
tp3058
aa(lp3059
(I1143
I117
g43
tp3060
aa(lp3061
(I1143
I243
g17
tp3062
aa(lp3063
(I1071
I225
g23
tp3064
aa(lp3065
(I1071
I99
g43
tp3066
aa(lp3067
(I1089
I126
g73
tp3068
aa(lp3069
(I1071
I126
g5
tp3070
aa(lp3071
(I1089
I243
g5
tp3072
aa(lp3073
(I1089
I189
g67
tp3074
aa(lp3075
(I1035
I207
g78
tp3076
aa(lp3077
(I1125
I234
g53
tp3078
aa(lp3079
(I1053
I225
g53
tp3080
aa(lp3081
(I1143
I162
g73
tp3082
aa(lp3083
(I1125
I234
g43
tp3084
aa(lp3085
(I1143
I252
g14
tp3086
aa(lp3087
(I1125
I225
g2
tp3088
aa(lp3089
(I1035
I243
g14
tp3090
aa(lp3091
(I1143
I108
g93
tp3092
aa(lp3093
(I1035
I153
g67
tp3094
aa(lp3095
(I1071
I243
g8
tp3096
aa(lp3097
(I1089
I180
g64
tp3098
aa(lp3099
(I1035
I234
g20
tp3100
aa(lp3101
(I1143
I216
g70
tp3102
aa(lp3103
(I1125
I162
g132
tp3104
aa(lp3105
(I1125
I261
g61
tp3106
aa(lp3107
(I1053
I270
g235
tp3108
aa(lp3109
(I1107
I72
g67
tp3110
aa(lp3111
(I1107
I144
g34
tp3112
aa(lp3113
(I1071
I81
g34
tp3114
aa(lp3115
(I1107
I171
g11
tp3116
aa(lp3117
(I1089
I144
g58
tp3118
aa(lp3119
(I1107
I90
g17
tp3120
aa(lp3121
(I1035
I153
g2
tp3122
aa(lp3123
(I1107
I81
g81
tp3124
aa(lp3125
(I1035
I99
g50
tp3126
aa(lp3127
(I1071
I153
g11
tp3128
aa(lp3129
(I1143
I144
g11
tp3130
aa(lp3131
(I1071
I225
g78
tp3132
aa(lp3133
(I1035
I180
g50
tp3134
aa(lp3135
(I1089
I153
g70
tp3136
aa(lp3137
(I1143
I243
g70
tp3138
aa(lp3139
(I1053
I162
g132
tp3140
aa(lp3141
(I1035
I216
g11
tp3142
aa(lp3143
(I1053
I234
g8
tp3144
aa(lp3145
(I1053
I117
g17
tp3146
aa(lp3147
(I1053
I72
g70
tp3148
aa(lp3149
(I1089
I234
g73
tp3150
aa(lp3151
(I1071
I216
g235
tp3152
aa(lp3153
(I1089
I207
g17
tp3154
aa(lp3155
(I1107
I225
g61
tp3156
aa(lp3157
(I1035
I90
g2
tp3158
aa(lp3159
(I1089
I135
g53
tp3160
aa(lp3161
(I1071
I270
g70
tp3162
aa(lp3163
(I1107
I207
g53
tp3164
aa(lp3165
(I1035
I99
g5
tp3166
aa(lp3167
(I1125
I270
g70
tp3168
aa(lp3169
(I1089
I117
g58
tp3170
aa(lp3171
(I1107
I90
g11
tp3172
aa(lp3173
(I1071
I162
g5
tp3174
aa(lp3175
(I1143
I261
g14
tp3176
aa(lp3177
(I1071
I81
g14
tp3178
aa(lp3179
(I1053
I216
g43
tp3180
aa(lp3181
(I1089
I126
g23
tp3182
aa(lp3183
(I1107
I126
g61
tp3184
aa(lp3185
(I1053
I117
g53
tp3186
aa(lp3187
(I1089
I243
g58
tp3188
aa(lp3189
(I1125
I198
g78
tp3190
aa(lp3191
(I1071
I252
g17
tp3192
aa(lp3193
(I1107
I252
g88
tp3194
aa(lp3195
(I1071
I243
g70
tp3196
aa(lp3197
(I1071
I162
g81
tp3198
aa(lp3199
(I1035
I216
g8
tp3200
aa(lp3201
(I1143
I234
g11
tp3202
aa(lp3203
(I1035
I261
g26
tp3204
aa(lp3205
(I1089
I180
g11
tp3206
aa(lp3207
(I1053
I261
g58
tp3208
aa(lp3209
(I1071
I189
g235
tp3210
aa(lp3211
(I1053
I144
g53
tp3212
aa(lp3213
(I1089
I243
g8
tp3214
aa(lp3215
(I1089
I252
g14
tp3216
aa(lp3217
(I1107
I225
g88
tp3218
aa(lp3219
(I1125
I252
g132
tp3220
aa(lp3221
(I1089
I234
g29
tp3222
aa(lp3223
(I1071
I180
g17
tp3224
aa(lp3225
(I1089
I90
g17
tp3226
aa.